	.file	"_poster.cpp"
	.section	.text._ZN9__gnu_cxx5__ops16__iter_less_iterEv,"axG",@progbits,_ZN9__gnu_cxx5__ops16__iter_less_iterEv,comdat
	.weak	_ZN9__gnu_cxx5__ops16__iter_less_iterEv
	.type	_ZN9__gnu_cxx5__ops16__iter_less_iterEv, @function
_ZN9__gnu_cxx5__ops16__iter_less_iterEv:
.LFB123:
	.cfi_startproc
	pushq	%rbp
	.cfi_def_cfa_offset 16
	.cfi_offset 6, -16
	movq	%rsp, %rbp
	.cfi_def_cfa_register 6
	popq	%rbp
	.cfi_def_cfa 7, 8
	ret
	.cfi_endproc
.LFE123:
	.size	_ZN9__gnu_cxx5__ops16__iter_less_iterEv, .-_ZN9__gnu_cxx5__ops16__iter_less_iterEv
	.section	.text._ZN9__gnu_cxx5__ops15__iter_less_valEv,"axG",@progbits,_ZN9__gnu_cxx5__ops15__iter_less_valEv,comdat
	.weak	_ZN9__gnu_cxx5__ops15__iter_less_valEv
	.type	_ZN9__gnu_cxx5__ops15__iter_less_valEv, @function
_ZN9__gnu_cxx5__ops15__iter_less_valEv:
.LFB125:
	.cfi_startproc
	pushq	%rbp
	.cfi_def_cfa_offset 16
	.cfi_offset 6, -16
	movq	%rsp, %rbp
	.cfi_def_cfa_register 6
	popq	%rbp
	.cfi_def_cfa 7, 8
	ret
	.cfi_endproc
.LFE125:
	.size	_ZN9__gnu_cxx5__ops15__iter_less_valEv, .-_ZN9__gnu_cxx5__ops15__iter_less_valEv
	.section	.text._ZN9__gnu_cxx5__ops15__iter_comp_valENS0_15_Iter_less_iterE,"axG",@progbits,_ZN9__gnu_cxx5__ops15__iter_comp_valENS0_15_Iter_less_iterE,comdat
	.weak	_ZN9__gnu_cxx5__ops15__iter_comp_valENS0_15_Iter_less_iterE
	.type	_ZN9__gnu_cxx5__ops15__iter_comp_valENS0_15_Iter_less_iterE, @function
_ZN9__gnu_cxx5__ops15__iter_comp_valENS0_15_Iter_less_iterE:
.LFB126:
	.cfi_startproc
	pushq	%rbp
	.cfi_def_cfa_offset 16
	.cfi_offset 6, -16
	movq	%rsp, %rbp
	.cfi_def_cfa_register 6
	popq	%rbp
	.cfi_def_cfa 7, 8
	ret
	.cfi_endproc
.LFE126:
	.size	_ZN9__gnu_cxx5__ops15__iter_comp_valENS0_15_Iter_less_iterE, .-_ZN9__gnu_cxx5__ops15__iter_comp_valENS0_15_Iter_less_iterE
	.section	.text._ZN9__gnu_cxx5__ops15__val_comp_iterENS0_15_Iter_less_iterE,"axG",@progbits,_ZN9__gnu_cxx5__ops15__val_comp_iterENS0_15_Iter_less_iterE,comdat
	.weak	_ZN9__gnu_cxx5__ops15__val_comp_iterENS0_15_Iter_less_iterE
	.type	_ZN9__gnu_cxx5__ops15__val_comp_iterENS0_15_Iter_less_iterE, @function
_ZN9__gnu_cxx5__ops15__val_comp_iterENS0_15_Iter_less_iterE:
.LFB129:
	.cfi_startproc
	pushq	%rbp
	.cfi_def_cfa_offset 16
	.cfi_offset 6, -16
	movq	%rsp, %rbp
	.cfi_def_cfa_register 6
	popq	%rbp
	.cfi_def_cfa 7, 8
	ret
	.cfi_endproc
.LFE129:
	.size	_ZN9__gnu_cxx5__ops15__val_comp_iterENS0_15_Iter_less_iterE, .-_ZN9__gnu_cxx5__ops15__val_comp_iterENS0_15_Iter_less_iterE
	.section	.text._ZN9__gnu_cxx5__ops20__iter_equal_to_iterEv,"axG",@progbits,_ZN9__gnu_cxx5__ops20__iter_equal_to_iterEv,comdat
	.weak	_ZN9__gnu_cxx5__ops20__iter_equal_to_iterEv
	.type	_ZN9__gnu_cxx5__ops20__iter_equal_to_iterEv, @function
_ZN9__gnu_cxx5__ops20__iter_equal_to_iterEv:
.LFB131:
	.cfi_startproc
	pushq	%rbp
	.cfi_def_cfa_offset 16
	.cfi_offset 6, -16
	movq	%rsp, %rbp
	.cfi_def_cfa_register 6
	popq	%rbp
	.cfi_def_cfa 7, 8
	ret
	.cfi_endproc
.LFE131:
	.size	_ZN9__gnu_cxx5__ops20__iter_equal_to_iterEv, .-_ZN9__gnu_cxx5__ops20__iter_equal_to_iterEv
	.section	.text._ZSt4__lgl,"axG",@progbits,_ZSt4__lgl,comdat
	.weak	_ZSt4__lgl
	.type	_ZSt4__lgl, @function
_ZSt4__lgl:
.LFB209:
	.cfi_startproc
	pushq	%rbp
	.cfi_def_cfa_offset 16
	.cfi_offset 6, -16
	movq	%rsp, %rbp
	.cfi_def_cfa_register 6
	movq	%rdi, -8(%rbp)
	movl	$64, %edx
	movq	-8(%rbp), %rax
	bsrq	%rax, %rax
	xorq	$63, %rax
	cltq
	subq	%rax, %rdx
	movq	%rdx, %rax
	subq	$1, %rax
	popq	%rbp
	.cfi_def_cfa 7, 8
	ret
	.cfi_endproc
.LFE209:
	.size	_ZSt4__lgl, .-_ZSt4__lgl
	.section	.text._ZnwmPv,"axG",@progbits,_ZnwmPv,comdat
	.weak	_ZnwmPv
	.type	_ZnwmPv, @function
_ZnwmPv:
.LFB312:
	.cfi_startproc
	pushq	%rbp
	.cfi_def_cfa_offset 16
	.cfi_offset 6, -16
	movq	%rsp, %rbp
	.cfi_def_cfa_register 6
	movq	%rdi, -8(%rbp)
	movq	%rsi, -16(%rbp)
	movq	-16(%rbp), %rax
	popq	%rbp
	.cfi_def_cfa 7, 8
	ret
	.cfi_endproc
.LFE312:
	.size	_ZnwmPv, .-_ZnwmPv
	.local	_ZStL8__ioinit
	.comm	_ZStL8__ioinit,1,1
	.globl	l
	.bss
	.align 32
	.type	l, @object
	.size	l, 40200
l:
	.zero	40200
	.globl	r
	.align 32
	.type	r, @object
	.size	r, 40200
r:
	.zero	40200
	.globl	board
	.align 32
	.type	board, @object
	.size	board, 80400
board:
	.zero	80400
	.globl	lazy
	.align 32
	.type	lazy, @object
	.size	lazy, 80400
lazy:
	.zero	80400
	.globl	visit
	.align 32
	.type	visit, @object
	.size	visit, 48
visit:
	.zero	48
	.text
	.globl	_Z8pushdowni
	.type	_Z8pushdowni, @function
_Z8pushdowni:
.LFB1430:
	.cfi_startproc
	pushq	%rbp
	.cfi_def_cfa_offset 16
	.cfi_offset 6, -16
	movq	%rsp, %rbp
	.cfi_def_cfa_register 6
	movl	%edi, -4(%rbp)
	movl	-4(%rbp), %eax
	leal	(%rax,%rax), %esi
	movl	-4(%rbp), %eax
	addl	%eax, %eax
	addl	$1, %eax
	movl	-4(%rbp), %edx
	movslq	%edx, %rdx
	movl	lazy(,%rdx,4), %ecx
	movslq	%eax, %rdx
	movl	%ecx, lazy(,%rdx,4)
	cltq
	movl	lazy(,%rax,4), %edx
	movslq	%esi, %rax
	movl	%edx, lazy(,%rax,4)
	movl	-4(%rbp), %eax
	cltq
	movl	$-1, lazy(,%rax,4)
	nop
	popq	%rbp
	.cfi_def_cfa 7, 8
	ret
	.cfi_endproc
.LFE1430:
	.size	_Z8pushdowni, .-_Z8pushdowni
	.globl	_Z6updateiiiiii
	.type	_Z6updateiiiiii, @function
_Z6updateiiiiii:
.LFB1431:
	.cfi_startproc
	pushq	%rbp
	.cfi_def_cfa_offset 16
	.cfi_offset 6, -16
	movq	%rsp, %rbp
	.cfi_def_cfa_register 6
	subq	$48, %rsp
	movl	%edi, -20(%rbp)
	movl	%esi, -24(%rbp)
	movl	%edx, -28(%rbp)
	movl	%ecx, -32(%rbp)
	movl	%r8d, -36(%rbp)
	movl	%r9d, -40(%rbp)
	movl	-32(%rbp), %eax
	cmpl	-24(%rbp), %eax
	jg	.L17
	movl	-36(%rbp), %eax
	cmpl	-28(%rbp), %eax
	jl	.L17
	movl	-20(%rbp), %eax
	cltq
	movl	-40(%rbp), %edx
	movl	%edx, lazy(,%rax,4)
	jmp	.L16
.L17:
	movl	-20(%rbp), %eax
	cltq
	movl	lazy(,%rax,4), %eax
	cmpl	$-1, %eax
	je	.L19
	movl	-20(%rbp), %eax
	movl	%eax, %edi
	call	_Z8pushdowni
.L19:
	movl	-28(%rbp), %eax
	subl	-24(%rbp), %eax
	movl	%eax, %edx
	shrl	$31, %edx
	addl	%edx, %eax
	sarl	%eax
	movl	%eax, %edx
	movl	-24(%rbp), %eax
	addl	%edx, %eax
	movl	%eax, -4(%rbp)
	movl	-4(%rbp), %eax
	cmpl	-36(%rbp), %eax
	jl	.L20
	movl	-20(%rbp), %eax
	leal	(%rax,%rax), %edi
	movl	-40(%rbp), %r8d
	movl	-36(%rbp), %esi
	movl	-32(%rbp), %ecx
	movl	-4(%rbp), %edx
	movl	-24(%rbp), %eax
	movl	%r8d, %r9d
	movl	%esi, %r8d
	movl	%eax, %esi
	call	_Z6updateiiiiii
	jmp	.L16
.L20:
	movl	-4(%rbp), %eax
	cmpl	-32(%rbp), %eax
	jg	.L21
	movl	-20(%rbp), %eax
	addl	%eax, %eax
	leal	1(%rax), %edi
	movl	-40(%rbp), %r8d
	movl	-36(%rbp), %esi
	movl	-32(%rbp), %ecx
	movl	-28(%rbp), %edx
	movl	-4(%rbp), %eax
	movl	%r8d, %r9d
	movl	%esi, %r8d
	movl	%eax, %esi
	call	_Z6updateiiiiii
	jmp	.L16
.L21:
	movl	-20(%rbp), %eax
	leal	(%rax,%rax), %edi
	movl	-40(%rbp), %r8d
	movl	-36(%rbp), %esi
	movl	-32(%rbp), %ecx
	movl	-4(%rbp), %edx
	movl	-24(%rbp), %eax
	movl	%r8d, %r9d
	movl	%esi, %r8d
	movl	%eax, %esi
	call	_Z6updateiiiiii
	movl	-4(%rbp), %eax
	leal	1(%rax), %esi
	movl	-20(%rbp), %eax
	addl	%eax, %eax
	leal	1(%rax), %edi
	movl	-40(%rbp), %r8d
	movl	-36(%rbp), %ecx
	movl	-32(%rbp), %edx
	movl	-24(%rbp), %eax
	movl	%r8d, %r9d
	movl	%ecx, %r8d
	movl	%edx, %ecx
	movl	%eax, %edx
	call	_Z6updateiiiiii
.L16:
	leave
	.cfi_def_cfa 7, 8
	ret
	.cfi_endproc
.LFE1431:
	.size	_Z6updateiiiiii, .-_Z6updateiiiiii
	.globl	_Z5queryiii
	.type	_Z5queryiii, @function
_Z5queryiii:
.LFB1432:
	.cfi_startproc
	pushq	%rbp
	.cfi_def_cfa_offset 16
	.cfi_offset 6, -16
	movq	%rsp, %rbp
	.cfi_def_cfa_register 6
	subq	$64, %rsp
	movl	%edi, -52(%rbp)
	movl	%esi, -56(%rbp)
	movl	%edx, -60(%rbp)
	movq	%fs:40, %rax
	movq	%rax, -8(%rbp)
	xorl	%eax, %eax
	movl	$0, -40(%rbp)
	movl	-60(%rbp), %eax
	cltq
	movl	lazy(,%rax,4), %eax
	cmpl	$-1, %eax
	je	.L23
	movl	$visit, %edi
	call	_ZNKSt3setIiSt4lessIiESaIiEE3endEv
	movq	%rax, -16(%rbp)
	movl	-60(%rbp), %eax
	cltq
	salq	$2, %rax
	addq	$lazy, %rax
	movq	%rax, %rsi
	movl	$visit, %edi
	call	_ZNSt3setIiSt4lessIiESaIiEE4findERKi
	movq	%rax, -32(%rbp)
	leaq	-16(%rbp), %rdx
	leaq	-32(%rbp), %rax
	movq	%rdx, %rsi
	movq	%rax, %rdi
	call	_ZNKSt23_Rb_tree_const_iteratorIiEneERKS0_
	testb	%al, %al
	je	.L23
	movl	-60(%rbp), %eax
	cltq
	salq	$2, %rax
	addq	$lazy, %rax
	movq	%rax, %rsi
	movl	$visit, %edi
	call	_ZNSt3setIiSt4lessIiESaIiEE6insertERKi
	addl	$1, -40(%rbp)
.L23:
	movl	-52(%rbp), %eax
	cmpl	-56(%rbp), %eax
	jne	.L24
	movl	$0, %eax
	jmp	.L25
.L24:
	movl	-56(%rbp), %eax
	subl	-52(%rbp), %eax
	movl	%eax, %edx
	shrl	$31, %edx
	addl	%edx, %eax
	sarl	%eax
	movl	%eax, %edx
	movl	-52(%rbp), %eax
	addl	%edx, %eax
	movl	%eax, -36(%rbp)
	movl	-60(%rbp), %eax
	leal	(%rax,%rax), %ecx
	movl	-36(%rbp), %edx
	movl	-52(%rbp), %eax
	movl	%eax, %esi
	movl	%ecx, %edi
	call	_Z5queryiii
	addl	%eax, -40(%rbp)
	movl	-36(%rbp), %eax
	leal	1(%rax), %esi
	movl	-60(%rbp), %eax
	addl	%eax, %eax
	leal	1(%rax), %ecx
	movl	-60(%rbp), %eax
	movl	%eax, %edx
	movl	%ecx, %edi
	call	_Z5queryiii
	addl	%eax, -40(%rbp)
	movl	-40(%rbp), %eax
.L25:
	movq	-8(%rbp), %rcx
	xorq	%fs:40, %rcx
	je	.L26
	call	__stack_chk_fail
.L26:
	leave
	.cfi_def_cfa 7, 8
	ret
	.cfi_endproc
.LFE1432:
	.size	_Z5queryiii, .-_Z5queryiii
	.section	.rodata
.LC0:
	.string	"%d"
.LC1:
	.string	"%d%d"
.LC2:
	.string	"%d\n"
	.text
	.globl	main
	.type	main, @function
main:
.LFB1433:
	.cfi_startproc
	pushq	%rbp
	.cfi_def_cfa_offset 16
	.cfi_offset 6, -16
	movq	%rsp, %rbp
	.cfi_def_cfa_register 6
	subq	$48, %rsp
	movq	%fs:40, %rax
	movq	%rax, -8(%rbp)
	xorl	%eax, %eax
	leaq	-44(%rbp), %rax
	movq	%rax, %rsi
	movl	$.LC0, %edi
	movl	$0, %eax
	call	scanf
.L36:
	movl	-44(%rbp), %eax
	leal	-1(%rax), %edx
	movl	%edx, -44(%rbp)
	testl	%eax, %eax
	setne	%al
	testb	%al, %al
	je	.L28
	movl	$80400, %edx
	movl	$-1, %esi
	movl	$board, %edi
	call	memset
	leaq	-40(%rbp), %rax
	movq	%rax, %rsi
	movl	$.LC0, %edi
	movl	$0, %eax
	call	scanf
	movl	$0, -36(%rbp)
	movl	$0, -32(%rbp)
.L30:
	movl	-40(%rbp), %eax
	cmpl	%eax, -32(%rbp)
	jge	.L29
	movl	-32(%rbp), %eax
	cltq
	salq	$2, %rax
	leaq	r(%rax), %rdx
	movl	-32(%rbp), %eax
	cltq
	salq	$2, %rax
	addq	$l, %rax
	movq	%rax, %rsi
	movl	$.LC1, %edi
	movl	$0, %eax
	call	scanf
	movl	-36(%rbp), %eax
	leal	1(%rax), %edx
	movl	%edx, -36(%rbp)
	movl	-32(%rbp), %edx
	movslq	%edx, %rdx
	movl	l(,%rdx,4), %edx
	cltq
	movl	%edx, board(,%rax,4)
	movl	-36(%rbp), %eax
	leal	1(%rax), %edx
	movl	%edx, -36(%rbp)
	movl	-32(%rbp), %edx
	movslq	%edx, %rdx
	movl	r(,%rdx,4), %edx
	cltq
	movl	%edx, board(,%rax,4)
	addl	$1, -32(%rbp)
	jmp	.L30
.L29:
	movl	-36(%rbp), %eax
	cltq
	salq	$2, %rax
	addq	$board, %rax
	movq	%rax, %rsi
	movl	$board, %edi
	call	_ZSt4sortIPiEvT_S1_
	movl	-36(%rbp), %eax
	cltq
	salq	$2, %rax
	addq	$board, %rax
	movq	%rax, %rsi
	movl	$board, %edi
	call	_ZSt6uniqueIPiET_S1_S1_
	movq	%rax, %rdx
	movl	$board, %eax
	subq	%rax, %rdx
	movq	%rdx, %rax
	sarq	$2, %rax
	movl	%eax, -36(%rbp)
	movl	-36(%rbp), %eax
	movl	%eax, -20(%rbp)
	movl	$0, -28(%rbp)
.L33:
	movl	-20(%rbp), %eax
	subl	$1, %eax
	cmpl	-28(%rbp), %eax
	jle	.L31
	movl	-28(%rbp), %eax
	cltq
	movl	board(,%rax,4), %eax
	leal	1(%rax), %edx
	movl	-28(%rbp), %eax
	addl	$1, %eax
	cltq
	movl	board(,%rax,4), %eax
	cmpl	%eax, %edx
	je	.L32
	movl	-36(%rbp), %eax
	leal	1(%rax), %edx
	movl	%edx, -36(%rbp)
	movl	-28(%rbp), %edx
	addl	$1, %edx
	movslq	%edx, %rdx
	movl	board(,%rdx,4), %edx
	subl	$1, %edx
	cltq
	movl	%edx, board(,%rax,4)
.L32:
	addl	$1, -28(%rbp)
	jmp	.L33
.L31:
	movl	-36(%rbp), %eax
	cltq
	salq	$2, %rax
	addq	$board, %rax
	movq	%rax, %rsi
	movl	$board, %edi
	call	_ZSt4sortIPiEvT_S1_
	movl	$0, -24(%rbp)
.L35:
	movl	-40(%rbp), %eax
	cmpl	%eax, -24(%rbp)
	jge	.L34
	movl	-24(%rbp), %eax
	cltq
	salq	$2, %rax
	leaq	l(%rax), %rdx
	movl	-36(%rbp), %eax
	cltq
	salq	$2, %rax
	addq	$board, %rax
	movq	%rax, %rsi
	movl	$board, %edi
	call	_ZSt11lower_boundIPiiET_S1_S1_RKT0_
	movq	%rax, %rdx
	movl	$board, %eax
	subq	%rax, %rdx
	movq	%rdx, %rax
	sarq	$2, %rax
	movl	%eax, -16(%rbp)
	movl	-24(%rbp), %eax
	cltq
	salq	$2, %rax
	leaq	r(%rax), %rdx
	movl	-36(%rbp), %eax
	cltq
	salq	$2, %rax
	addq	$board, %rax
	movq	%rax, %rsi
	movl	$board, %edi
	call	_ZSt11lower_boundIPiiET_S1_S1_RKT0_
	movq	%rax, %rdx
	movl	$board, %eax
	subq	%rax, %rdx
	movq	%rdx, %rax
	sarq	$2, %rax
	movl	%eax, -12(%rbp)
	movl	-24(%rbp), %esi
	movl	-12(%rbp), %ecx
	movl	-16(%rbp), %edx
	movl	-36(%rbp), %eax
	movl	%esi, %r9d
	movl	%ecx, %r8d
	movl	%edx, %ecx
	movl	%eax, %edx
	movl	$1, %esi
	movl	$1, %edi
	call	_Z6updateiiiiii
	addl	$1, -24(%rbp)
	jmp	.L35
.L34:
	movl	-36(%rbp), %eax
	movl	$1, %edx
	movl	%eax, %esi
	movl	$1, %edi
	call	_Z5queryiii
	movl	%eax, %esi
	movl	$.LC2, %edi
	movl	$0, %eax
	call	printf
	jmp	.L36
.L28:
	movl	$0, %eax
	movq	-8(%rbp), %rcx
	xorq	%fs:40, %rcx
	je	.L38
	call	__stack_chk_fail
.L38:
	leave
	.cfi_def_cfa 7, 8
	ret
	.cfi_endproc
.LFE1433:
	.size	main, .-main
	.section	.text._ZNSt3setIiSt4lessIiESaIiEEC2Ev,"axG",@progbits,_ZNSt3setIiSt4lessIiESaIiEEC5Ev,comdat
	.align 2
	.weak	_ZNSt3setIiSt4lessIiESaIiEEC2Ev
	.type	_ZNSt3setIiSt4lessIiESaIiEEC2Ev, @function
_ZNSt3setIiSt4lessIiESaIiEEC2Ev:
.LFB1435:
	.cfi_startproc
	pushq	%rbp
	.cfi_def_cfa_offset 16
	.cfi_offset 6, -16
	movq	%rsp, %rbp
	.cfi_def_cfa_register 6
	subq	$16, %rsp
	movq	%rdi, -8(%rbp)
	movq	-8(%rbp), %rax
	movq	%rax, %rdi
	call	_ZNSt8_Rb_treeIiiSt9_IdentityIiESt4lessIiESaIiEEC1Ev
	nop
	leave
	.cfi_def_cfa 7, 8
	ret
	.cfi_endproc
.LFE1435:
	.size	_ZNSt3setIiSt4lessIiESaIiEEC2Ev, .-_ZNSt3setIiSt4lessIiESaIiEEC2Ev
	.weak	_ZNSt3setIiSt4lessIiESaIiEEC1Ev
	.set	_ZNSt3setIiSt4lessIiESaIiEEC1Ev,_ZNSt3setIiSt4lessIiESaIiEEC2Ev
	.section	.text._ZNSt3setIiSt4lessIiESaIiEE4findERKi,"axG",@progbits,_ZNSt3setIiSt4lessIiESaIiEE4findERKi,comdat
	.align 2
	.weak	_ZNSt3setIiSt4lessIiESaIiEE4findERKi
	.type	_ZNSt3setIiSt4lessIiESaIiEE4findERKi, @function
_ZNSt3setIiSt4lessIiESaIiEE4findERKi:
.LFB1437:
	.cfi_startproc
	pushq	%rbp
	.cfi_def_cfa_offset 16
	.cfi_offset 6, -16
	movq	%rsp, %rbp
	.cfi_def_cfa_register 6
	subq	$48, %rsp
	movq	%rdi, -40(%rbp)
	movq	%rsi, -48(%rbp)
	movq	%fs:40, %rax
	movq	%rax, -8(%rbp)
	xorl	%eax, %eax
	movq	-40(%rbp), %rax
	movq	-48(%rbp), %rdx
	movq	%rdx, %rsi
	movq	%rax, %rdi
	call	_ZNSt8_Rb_treeIiiSt9_IdentityIiESt4lessIiESaIiEE4findERKi
	movq	%rax, -32(%rbp)
	leaq	-32(%rbp), %rdx
	leaq	-16(%rbp), %rax
	movq	%rdx, %rsi
	movq	%rax, %rdi
	call	_ZNSt23_Rb_tree_const_iteratorIiEC1ERKSt17_Rb_tree_iteratorIiE
	movq	-16(%rbp), %rax
	movq	-8(%rbp), %rcx
	xorq	%fs:40, %rcx
	je	.L42
	call	__stack_chk_fail
.L42:
	leave
	.cfi_def_cfa 7, 8
	ret
	.cfi_endproc
.LFE1437:
	.size	_ZNSt3setIiSt4lessIiESaIiEE4findERKi, .-_ZNSt3setIiSt4lessIiESaIiEE4findERKi
	.section	.text._ZNKSt3setIiSt4lessIiESaIiEE3endEv,"axG",@progbits,_ZNKSt3setIiSt4lessIiESaIiEE3endEv,comdat
	.align 2
	.weak	_ZNKSt3setIiSt4lessIiESaIiEE3endEv
	.type	_ZNKSt3setIiSt4lessIiESaIiEE3endEv, @function
_ZNKSt3setIiSt4lessIiESaIiEE3endEv:
.LFB1438:
	.cfi_startproc
	pushq	%rbp
	.cfi_def_cfa_offset 16
	.cfi_offset 6, -16
	movq	%rsp, %rbp
	.cfi_def_cfa_register 6
	subq	$16, %rsp
	movq	%rdi, -8(%rbp)
	movq	-8(%rbp), %rax
	movq	%rax, %rdi
	call	_ZNKSt8_Rb_treeIiiSt9_IdentityIiESt4lessIiESaIiEE3endEv
	leave
	.cfi_def_cfa 7, 8
	ret
	.cfi_endproc
.LFE1438:
	.size	_ZNKSt3setIiSt4lessIiESaIiEE3endEv, .-_ZNKSt3setIiSt4lessIiESaIiEE3endEv
	.section	.text._ZNKSt23_Rb_tree_const_iteratorIiEneERKS0_,"axG",@progbits,_ZNKSt23_Rb_tree_const_iteratorIiEneERKS0_,comdat
	.align 2
	.weak	_ZNKSt23_Rb_tree_const_iteratorIiEneERKS0_
	.type	_ZNKSt23_Rb_tree_const_iteratorIiEneERKS0_, @function
_ZNKSt23_Rb_tree_const_iteratorIiEneERKS0_:
.LFB1439:
	.cfi_startproc
	pushq	%rbp
	.cfi_def_cfa_offset 16
	.cfi_offset 6, -16
	movq	%rsp, %rbp
	.cfi_def_cfa_register 6
	movq	%rdi, -8(%rbp)
	movq	%rsi, -16(%rbp)
	movq	-8(%rbp), %rax
	movq	(%rax), %rdx
	movq	-16(%rbp), %rax
	movq	(%rax), %rax
	cmpq	%rax, %rdx
	setne	%al
	popq	%rbp
	.cfi_def_cfa 7, 8
	ret
	.cfi_endproc
.LFE1439:
	.size	_ZNKSt23_Rb_tree_const_iteratorIiEneERKS0_, .-_ZNKSt23_Rb_tree_const_iteratorIiEneERKS0_
	.section	.text._ZNSt3setIiSt4lessIiESaIiEE6insertERKi,"axG",@progbits,_ZNSt3setIiSt4lessIiESaIiEE6insertERKi,comdat
	.align 2
	.weak	_ZNSt3setIiSt4lessIiESaIiEE6insertERKi
	.type	_ZNSt3setIiSt4lessIiESaIiEE6insertERKi, @function
_ZNSt3setIiSt4lessIiESaIiEE6insertERKi:
.LFB1440:
	.cfi_startproc
	pushq	%rbp
	.cfi_def_cfa_offset 16
	.cfi_offset 6, -16
	movq	%rsp, %rbp
	.cfi_def_cfa_register 6
	subq	$80, %rsp
	movq	%rdi, -72(%rbp)
	movq	%rsi, -80(%rbp)
	movq	%fs:40, %rax
	movq	%rax, -8(%rbp)
	xorl	%eax, %eax
	movq	-72(%rbp), %rax
	movq	-80(%rbp), %rdx
	movq	%rdx, %rsi
	movq	%rax, %rdi
	call	_ZNSt8_Rb_treeIiiSt9_IdentityIiESt4lessIiESaIiEE16_M_insert_uniqueERKi
	movq	%rax, -48(%rbp)
	movq	%rdx, -40(%rbp)
	leaq	-48(%rbp), %rdx
	leaq	-64(%rbp), %rax
	movq	%rdx, %rsi
	movq	%rax, %rdi
	call	_ZNSt23_Rb_tree_const_iteratorIiEC1ERKSt17_Rb_tree_iteratorIiE
	leaq	-48(%rbp), %rax
	leaq	8(%rax), %rdx
	leaq	-64(%rbp), %rcx
	leaq	-32(%rbp), %rax
	movq	%rcx, %rsi
	movq	%rax, %rdi
	call	_ZNSt4pairISt23_Rb_tree_const_iteratorIiEbEC1ERKS1_RKb
	movq	-32(%rbp), %rax
	movq	-24(%rbp), %rdx
	movq	-8(%rbp), %rcx
	xorq	%fs:40, %rcx
	je	.L49
	call	__stack_chk_fail
.L49:
	leave
	.cfi_def_cfa 7, 8
	ret
	.cfi_endproc
.LFE1440:
	.size	_ZNSt3setIiSt4lessIiESaIiEE6insertERKi, .-_ZNSt3setIiSt4lessIiESaIiEE6insertERKi
	.section	.text._ZSt4sortIPiEvT_S1_,"axG",@progbits,_ZSt4sortIPiEvT_S1_,comdat
	.weak	_ZSt4sortIPiEvT_S1_
	.type	_ZSt4sortIPiEvT_S1_, @function
_ZSt4sortIPiEvT_S1_:
.LFB1441:
	.cfi_startproc
	pushq	%rbp
	.cfi_def_cfa_offset 16
	.cfi_offset 6, -16
	movq	%rsp, %rbp
	.cfi_def_cfa_register 6
	pushq	%rbx
	subq	$40, %rsp
	.cfi_offset 3, -24
	movq	%rdi, -40(%rbp)
	movq	%rsi, -48(%rbp)
	movq	%fs:40, %rax
	movq	%rax, -24(%rbp)
	xorl	%eax, %eax
	call	_ZN9__gnu_cxx5__ops16__iter_less_iterEv
	movq	-48(%rbp), %rdx
	movq	-40(%rbp), %rax
	subq	$8, %rsp
	pushq	%rbx
	movq	%rdx, %rsi
	movq	%rax, %rdi
	call	_ZSt6__sortIPiN9__gnu_cxx5__ops15_Iter_less_iterEEvT_S4_T0_
	addq	$16, %rsp
	nop
	movq	-24(%rbp), %rax
	xorq	%fs:40, %rax
	je	.L51
	call	__stack_chk_fail
.L51:
	movq	-8(%rbp), %rbx
	leave
	.cfi_def_cfa 7, 8
	ret
	.cfi_endproc
.LFE1441:
	.size	_ZSt4sortIPiEvT_S1_, .-_ZSt4sortIPiEvT_S1_
	.section	.text._ZSt6uniqueIPiET_S1_S1_,"axG",@progbits,_ZSt6uniqueIPiET_S1_S1_,comdat
	.weak	_ZSt6uniqueIPiET_S1_S1_
	.type	_ZSt6uniqueIPiET_S1_S1_, @function
_ZSt6uniqueIPiET_S1_S1_:
.LFB1442:
	.cfi_startproc
	pushq	%rbp
	.cfi_def_cfa_offset 16
	.cfi_offset 6, -16
	movq	%rsp, %rbp
	.cfi_def_cfa_register 6
	pushq	%rbx
	subq	$40, %rsp
	.cfi_offset 3, -24
	movq	%rdi, -40(%rbp)
	movq	%rsi, -48(%rbp)
	movq	%fs:40, %rax
	movq	%rax, -24(%rbp)
	xorl	%eax, %eax
	call	_ZN9__gnu_cxx5__ops20__iter_equal_to_iterEv
	movq	-48(%rbp), %rdx
	movq	-40(%rbp), %rax
	subq	$8, %rsp
	pushq	%rbx
	movq	%rdx, %rsi
	movq	%rax, %rdi
	call	_ZSt8__uniqueIPiN9__gnu_cxx5__ops19_Iter_equal_to_iterEET_S4_S4_T0_
	addq	$16, %rsp
	movq	-24(%rbp), %rcx
	xorq	%fs:40, %rcx
	je	.L54
	call	__stack_chk_fail
.L54:
	movq	-8(%rbp), %rbx
	leave
	.cfi_def_cfa 7, 8
	ret
	.cfi_endproc
.LFE1442:
	.size	_ZSt6uniqueIPiET_S1_S1_, .-_ZSt6uniqueIPiET_S1_S1_
	.section	.text._ZSt11lower_boundIPiiET_S1_S1_RKT0_,"axG",@progbits,_ZSt11lower_boundIPiiET_S1_S1_RKT0_,comdat
	.weak	_ZSt11lower_boundIPiiET_S1_S1_RKT0_
	.type	_ZSt11lower_boundIPiiET_S1_S1_RKT0_, @function
_ZSt11lower_boundIPiiET_S1_S1_RKT0_:
.LFB1443:
	.cfi_startproc
	pushq	%rbp
	.cfi_def_cfa_offset 16
	.cfi_offset 6, -16
	movq	%rsp, %rbp
	.cfi_def_cfa_register 6
	pushq	%rbx
	subq	$56, %rsp
	.cfi_offset 3, -24
	movq	%rdi, -40(%rbp)
	movq	%rsi, -48(%rbp)
	movq	%rdx, -56(%rbp)
	movq	%fs:40, %rax
	movq	%rax, -24(%rbp)
	xorl	%eax, %eax
	call	_ZN9__gnu_cxx5__ops15__iter_less_valEv
	movq	-56(%rbp), %rdx
	movq	-48(%rbp), %rcx
	movq	-40(%rbp), %rax
	subq	$8, %rsp
	pushq	%rbx
	movq	%rcx, %rsi
	movq	%rax, %rdi
	call	_ZSt13__lower_boundIPiiN9__gnu_cxx5__ops14_Iter_less_valEET_S4_S4_RKT0_T1_
	addq	$16, %rsp
	movq	-24(%rbp), %rbx
	xorq	%fs:40, %rbx
	je	.L57
	call	__stack_chk_fail
.L57:
	movq	-8(%rbp), %rbx
	leave
	.cfi_def_cfa 7, 8
	ret
	.cfi_endproc
.LFE1443:
	.size	_ZSt11lower_boundIPiiET_S1_S1_RKT0_, .-_ZSt11lower_boundIPiiET_S1_S1_RKT0_
	.section	.text._ZNSt8_Rb_treeIiiSt9_IdentityIiESt4lessIiESaIiEE13_Rb_tree_implIS3_Lb0EED2Ev,"axG",@progbits,_ZNSt8_Rb_treeIiiSt9_IdentityIiESt4lessIiESaIiEE13_Rb_tree_implIS3_Lb0EED5Ev,comdat
	.align 2
	.weak	_ZNSt8_Rb_treeIiiSt9_IdentityIiESt4lessIiESaIiEE13_Rb_tree_implIS3_Lb0EED2Ev
	.type	_ZNSt8_Rb_treeIiiSt9_IdentityIiESt4lessIiESaIiEE13_Rb_tree_implIS3_Lb0EED2Ev, @function
_ZNSt8_Rb_treeIiiSt9_IdentityIiESt4lessIiESaIiEE13_Rb_tree_implIS3_Lb0EED2Ev:
.LFB1446:
	.cfi_startproc
	pushq	%rbp
	.cfi_def_cfa_offset 16
	.cfi_offset 6, -16
	movq	%rsp, %rbp
	.cfi_def_cfa_register 6
	subq	$16, %rsp
	movq	%rdi, -8(%rbp)
	movq	-8(%rbp), %rax
	movq	%rax, %rdi
	call	_ZNSaISt13_Rb_tree_nodeIiEED2Ev
	nop
	leave
	.cfi_def_cfa 7, 8
	ret
	.cfi_endproc
.LFE1446:
	.size	_ZNSt8_Rb_treeIiiSt9_IdentityIiESt4lessIiESaIiEE13_Rb_tree_implIS3_Lb0EED2Ev, .-_ZNSt8_Rb_treeIiiSt9_IdentityIiESt4lessIiESaIiEE13_Rb_tree_implIS3_Lb0EED2Ev
	.weak	_ZNSt8_Rb_treeIiiSt9_IdentityIiESt4lessIiESaIiEE13_Rb_tree_implIS3_Lb0EED1Ev
	.set	_ZNSt8_Rb_treeIiiSt9_IdentityIiESt4lessIiESaIiEE13_Rb_tree_implIS3_Lb0EED1Ev,_ZNSt8_Rb_treeIiiSt9_IdentityIiESt4lessIiESaIiEE13_Rb_tree_implIS3_Lb0EED2Ev
	.section	.text._ZNSt8_Rb_treeIiiSt9_IdentityIiESt4lessIiESaIiEEC2Ev,"axG",@progbits,_ZNSt8_Rb_treeIiiSt9_IdentityIiESt4lessIiESaIiEEC5Ev,comdat
	.align 2
	.weak	_ZNSt8_Rb_treeIiiSt9_IdentityIiESt4lessIiESaIiEEC2Ev
	.type	_ZNSt8_Rb_treeIiiSt9_IdentityIiESt4lessIiESaIiEEC2Ev, @function
_ZNSt8_Rb_treeIiiSt9_IdentityIiESt4lessIiESaIiEEC2Ev:
.LFB1448:
	.cfi_startproc
	pushq	%rbp
	.cfi_def_cfa_offset 16
	.cfi_offset 6, -16
	movq	%rsp, %rbp
	.cfi_def_cfa_register 6
	subq	$16, %rsp
	movq	%rdi, -8(%rbp)
	movq	-8(%rbp), %rax
	movq	%rax, %rdi
	call	_ZNSt8_Rb_treeIiiSt9_IdentityIiESt4lessIiESaIiEE13_Rb_tree_implIS3_Lb0EEC1Ev
	nop
	leave
	.cfi_def_cfa 7, 8
	ret
	.cfi_endproc
.LFE1448:
	.size	_ZNSt8_Rb_treeIiiSt9_IdentityIiESt4lessIiESaIiEEC2Ev, .-_ZNSt8_Rb_treeIiiSt9_IdentityIiESt4lessIiESaIiEEC2Ev
	.weak	_ZNSt8_Rb_treeIiiSt9_IdentityIiESt4lessIiESaIiEEC1Ev
	.set	_ZNSt8_Rb_treeIiiSt9_IdentityIiESt4lessIiESaIiEEC1Ev,_ZNSt8_Rb_treeIiiSt9_IdentityIiESt4lessIiESaIiEEC2Ev
	.section	.text._ZNSt8_Rb_treeIiiSt9_IdentityIiESt4lessIiESaIiEED2Ev,"axG",@progbits,_ZNSt8_Rb_treeIiiSt9_IdentityIiESt4lessIiESaIiEED5Ev,comdat
	.align 2
	.weak	_ZNSt8_Rb_treeIiiSt9_IdentityIiESt4lessIiESaIiEED2Ev
	.type	_ZNSt8_Rb_treeIiiSt9_IdentityIiESt4lessIiESaIiEED2Ev, @function
_ZNSt8_Rb_treeIiiSt9_IdentityIiESt4lessIiESaIiEED2Ev:
.LFB1451:
	.cfi_startproc
	.cfi_personality 0x3,__gxx_personality_v0
	.cfi_lsda 0x3,.LLSDA1451
	pushq	%rbp
	.cfi_def_cfa_offset 16
	.cfi_offset 6, -16
	movq	%rsp, %rbp
	.cfi_def_cfa_register 6
	pushq	%rbx
	subq	$24, %rsp
	.cfi_offset 3, -24
	movq	%rdi, -24(%rbp)
	movq	-24(%rbp), %rax
	movq	%rax, %rdi
	call	_ZNSt8_Rb_treeIiiSt9_IdentityIiESt4lessIiESaIiEE8_M_beginEv
	movq	%rax, %rdx
	movq	-24(%rbp), %rax
	movq	%rdx, %rsi
	movq	%rax, %rdi
.LEHB0:
	call	_ZNSt8_Rb_treeIiiSt9_IdentityIiESt4lessIiESaIiEE8_M_eraseEPSt13_Rb_tree_nodeIiE
.LEHE0:
	movq	-24(%rbp), %rax
	movq	%rax, %rdi
	call	_ZNSt8_Rb_treeIiiSt9_IdentityIiESt4lessIiESaIiEE13_Rb_tree_implIS3_Lb0EED1Ev
	jmp	.L63
.L62:
	movq	%rax, %rbx
	movq	-24(%rbp), %rax
	movq	%rax, %rdi
	call	_ZNSt8_Rb_treeIiiSt9_IdentityIiESt4lessIiESaIiEE13_Rb_tree_implIS3_Lb0EED1Ev
	movq	%rbx, %rax
	movq	%rax, %rdi
.LEHB1:
	call	_Unwind_Resume
.LEHE1:
.L63:
	addq	$24, %rsp
	popq	%rbx
	popq	%rbp
	.cfi_def_cfa 7, 8
	ret
	.cfi_endproc
.LFE1451:
	.globl	__gxx_personality_v0
	.section	.gcc_except_table._ZNSt8_Rb_treeIiiSt9_IdentityIiESt4lessIiESaIiEED2Ev,"aG",@progbits,_ZNSt8_Rb_treeIiiSt9_IdentityIiESt4lessIiESaIiEED5Ev,comdat
.LLSDA1451:
	.byte	0xff
	.byte	0xff
	.byte	0x1
	.uleb128 .LLSDACSE1451-.LLSDACSB1451
.LLSDACSB1451:
	.uleb128 .LEHB0-.LFB1451
	.uleb128 .LEHE0-.LEHB0
	.uleb128 .L62-.LFB1451
	.uleb128 0
	.uleb128 .LEHB1-.LFB1451
	.uleb128 .LEHE1-.LEHB1
	.uleb128 0
	.uleb128 0
.LLSDACSE1451:
	.section	.text._ZNSt8_Rb_treeIiiSt9_IdentityIiESt4lessIiESaIiEED2Ev,"axG",@progbits,_ZNSt8_Rb_treeIiiSt9_IdentityIiESt4lessIiESaIiEED5Ev,comdat
	.size	_ZNSt8_Rb_treeIiiSt9_IdentityIiESt4lessIiESaIiEED2Ev, .-_ZNSt8_Rb_treeIiiSt9_IdentityIiESt4lessIiESaIiEED2Ev
	.weak	_ZNSt8_Rb_treeIiiSt9_IdentityIiESt4lessIiESaIiEED1Ev
	.set	_ZNSt8_Rb_treeIiiSt9_IdentityIiESt4lessIiESaIiEED1Ev,_ZNSt8_Rb_treeIiiSt9_IdentityIiESt4lessIiESaIiEED2Ev
	.section	.text._ZNSt8_Rb_treeIiiSt9_IdentityIiESt4lessIiESaIiEE4findERKi,"axG",@progbits,_ZNSt8_Rb_treeIiiSt9_IdentityIiESt4lessIiESaIiEE4findERKi,comdat
	.align 2
	.weak	_ZNSt8_Rb_treeIiiSt9_IdentityIiESt4lessIiESaIiEE4findERKi
	.type	_ZNSt8_Rb_treeIiiSt9_IdentityIiESt4lessIiESaIiEE4findERKi, @function
_ZNSt8_Rb_treeIiiSt9_IdentityIiESt4lessIiESaIiEE4findERKi:
.LFB1453:
	.cfi_startproc
	.cfi_personality 0x3,__gxx_personality_v0
	.cfi_lsda 0x3,.LLSDA1453
	pushq	%rbp
	.cfi_def_cfa_offset 16
	.cfi_offset 6, -16
	movq	%rsp, %rbp
	.cfi_def_cfa_register 6
	pushq	%rbx
	subq	$56, %rsp
	.cfi_offset 3, -24
	movq	%rdi, -56(%rbp)
	movq	%rsi, -64(%rbp)
	movq	%fs:40, %rax
	movq	%rax, -24(%rbp)
	xorl	%eax, %eax
	movq	-56(%rbp), %rax
	movq	%rax, %rdi
	call	_ZNSt8_Rb_treeIiiSt9_IdentityIiESt4lessIiESaIiEE6_M_endEv
	movq	%rax, %rbx
	movq	-56(%rbp), %rax
	movq	%rax, %rdi
	call	_ZNSt8_Rb_treeIiiSt9_IdentityIiESt4lessIiESaIiEE8_M_beginEv
	movq	%rax, %rsi
	movq	-64(%rbp), %rdx
	movq	-56(%rbp), %rax
	movq	%rdx, %rcx
	movq	%rbx, %rdx
	movq	%rax, %rdi
.LEHB2:
	call	_ZNSt8_Rb_treeIiiSt9_IdentityIiESt4lessIiESaIiEE14_M_lower_boundEPSt13_Rb_tree_nodeIiES8_RKi
.LEHE2:
	movq	%rax, -48(%rbp)
	movl	$0, %ebx
	movq	-56(%rbp), %rax
	movq	%rax, %rdi
.LEHB3:
	call	_ZNSt8_Rb_treeIiiSt9_IdentityIiESt4lessIiESaIiEE3endEv
	movq	%rax, -32(%rbp)
	movl	$1, %ebx
	leaq	-32(%rbp), %rdx
	leaq	-48(%rbp), %rax
	movq	%rdx, %rsi
	movq	%rax, %rdi
	call	_ZNKSt17_Rb_tree_iteratorIiEeqERKS0_
	testb	%al, %al
	jne	.L65
	movq	-48(%rbp), %rax
	movq	%rax, %rdi
	call	_ZNSt8_Rb_treeIiiSt9_IdentityIiESt4lessIiESaIiEE6_S_keyEPKSt18_Rb_tree_node_base
	movq	%rax, %rdx
	movq	-56(%rbp), %rax
	movq	-64(%rbp), %rcx
	movq	%rcx, %rsi
	movq	%rax, %rdi
	call	_ZNKSt4lessIiEclERKiS2_
	testb	%al, %al
	je	.L66
.L65:
	movq	-56(%rbp), %rax
	movq	%rax, %rdi
	call	_ZNSt8_Rb_treeIiiSt9_IdentityIiESt4lessIiESaIiEE3endEv
.LEHE3:
	jmp	.L74
.L66:
	movq	-48(%rbp), %rax
.L74:
	testb	%bl, %bl
	movq	-24(%rbp), %rcx
	xorq	%fs:40, %rcx
	je	.L72
	jmp	.L75
.L73:
	testb	%bl, %bl
	nop
	movq	%rax, %rdi
.LEHB4:
	call	_Unwind_Resume
.LEHE4:
.L75:
	call	__stack_chk_fail
.L72:
	addq	$56, %rsp
	popq	%rbx
	popq	%rbp
	.cfi_def_cfa 7, 8
	ret
	.cfi_endproc
.LFE1453:
	.section	.gcc_except_table._ZNSt8_Rb_treeIiiSt9_IdentityIiESt4lessIiESaIiEE4findERKi,"aG",@progbits,_ZNSt8_Rb_treeIiiSt9_IdentityIiESt4lessIiESaIiEE4findERKi,comdat
.LLSDA1453:
	.byte	0xff
	.byte	0xff
	.byte	0x1
	.uleb128 .LLSDACSE1453-.LLSDACSB1453
.LLSDACSB1453:
	.uleb128 .LEHB2-.LFB1453
	.uleb128 .LEHE2-.LEHB2
	.uleb128 0
	.uleb128 0
	.uleb128 .LEHB3-.LFB1453
	.uleb128 .LEHE3-.LEHB3
	.uleb128 .L73-.LFB1453
	.uleb128 0
	.uleb128 .LEHB4-.LFB1453
	.uleb128 .LEHE4-.LEHB4
	.uleb128 0
	.uleb128 0
.LLSDACSE1453:
	.section	.text._ZNSt8_Rb_treeIiiSt9_IdentityIiESt4lessIiESaIiEE4findERKi,"axG",@progbits,_ZNSt8_Rb_treeIiiSt9_IdentityIiESt4lessIiESaIiEE4findERKi,comdat
	.size	_ZNSt8_Rb_treeIiiSt9_IdentityIiESt4lessIiESaIiEE4findERKi, .-_ZNSt8_Rb_treeIiiSt9_IdentityIiESt4lessIiESaIiEE4findERKi
	.section	.text._ZNSt23_Rb_tree_const_iteratorIiEC2ERKSt17_Rb_tree_iteratorIiE,"axG",@progbits,_ZNSt23_Rb_tree_const_iteratorIiEC5ERKSt17_Rb_tree_iteratorIiE,comdat
	.align 2
	.weak	_ZNSt23_Rb_tree_const_iteratorIiEC2ERKSt17_Rb_tree_iteratorIiE
	.type	_ZNSt23_Rb_tree_const_iteratorIiEC2ERKSt17_Rb_tree_iteratorIiE, @function
_ZNSt23_Rb_tree_const_iteratorIiEC2ERKSt17_Rb_tree_iteratorIiE:
.LFB1455:
	.cfi_startproc
	pushq	%rbp
	.cfi_def_cfa_offset 16
	.cfi_offset 6, -16
	movq	%rsp, %rbp
	.cfi_def_cfa_register 6
	movq	%rdi, -8(%rbp)
	movq	%rsi, -16(%rbp)
	movq	-16(%rbp), %rax
	movq	(%rax), %rdx
	movq	-8(%rbp), %rax
	movq	%rdx, (%rax)
	nop
	popq	%rbp
	.cfi_def_cfa 7, 8
	ret
	.cfi_endproc
.LFE1455:
	.size	_ZNSt23_Rb_tree_const_iteratorIiEC2ERKSt17_Rb_tree_iteratorIiE, .-_ZNSt23_Rb_tree_const_iteratorIiEC2ERKSt17_Rb_tree_iteratorIiE
	.weak	_ZNSt23_Rb_tree_const_iteratorIiEC1ERKSt17_Rb_tree_iteratorIiE
	.set	_ZNSt23_Rb_tree_const_iteratorIiEC1ERKSt17_Rb_tree_iteratorIiE,_ZNSt23_Rb_tree_const_iteratorIiEC2ERKSt17_Rb_tree_iteratorIiE
	.section	.text._ZNKSt8_Rb_treeIiiSt9_IdentityIiESt4lessIiESaIiEE3endEv,"axG",@progbits,_ZNKSt8_Rb_treeIiiSt9_IdentityIiESt4lessIiESaIiEE3endEv,comdat
	.align 2
	.weak	_ZNKSt8_Rb_treeIiiSt9_IdentityIiESt4lessIiESaIiEE3endEv
	.type	_ZNKSt8_Rb_treeIiiSt9_IdentityIiESt4lessIiESaIiEE3endEv, @function
_ZNKSt8_Rb_treeIiiSt9_IdentityIiESt4lessIiESaIiEE3endEv:
.LFB1457:
	.cfi_startproc
	pushq	%rbp
	.cfi_def_cfa_offset 16
	.cfi_offset 6, -16
	movq	%rsp, %rbp
	.cfi_def_cfa_register 6
	subq	$32, %rsp
	movq	%rdi, -24(%rbp)
	movq	%fs:40, %rax
	movq	%rax, -8(%rbp)
	xorl	%eax, %eax
	movq	-24(%rbp), %rax
	leaq	8(%rax), %rdx
	leaq	-16(%rbp), %rax
	movq	%rdx, %rsi
	movq	%rax, %rdi
	call	_ZNSt23_Rb_tree_const_iteratorIiEC1EPKSt18_Rb_tree_node_base
	movq	-16(%rbp), %rax
	movq	-8(%rbp), %rcx
	xorq	%fs:40, %rcx
	je	.L79
	call	__stack_chk_fail
.L79:
	leave
	.cfi_def_cfa 7, 8
	ret
	.cfi_endproc
.LFE1457:
	.size	_ZNKSt8_Rb_treeIiiSt9_IdentityIiESt4lessIiESaIiEE3endEv, .-_ZNKSt8_Rb_treeIiiSt9_IdentityIiESt4lessIiESaIiEE3endEv
	.section	.text._ZNSt8_Rb_treeIiiSt9_IdentityIiESt4lessIiESaIiEE16_M_insert_uniqueERKi,"axG",@progbits,_ZNSt8_Rb_treeIiiSt9_IdentityIiESt4lessIiESaIiEE16_M_insert_uniqueERKi,comdat
	.align 2
	.weak	_ZNSt8_Rb_treeIiiSt9_IdentityIiESt4lessIiESaIiEE16_M_insert_uniqueERKi
	.type	_ZNSt8_Rb_treeIiiSt9_IdentityIiESt4lessIiESaIiEE16_M_insert_uniqueERKi, @function
_ZNSt8_Rb_treeIiiSt9_IdentityIiESt4lessIiESaIiEE16_M_insert_uniqueERKi:
.LFB1458:
	.cfi_startproc
	pushq	%rbp
	.cfi_def_cfa_offset 16
	.cfi_offset 6, -16
	movq	%rsp, %rbp
	.cfi_def_cfa_register 6
	subq	$112, %rsp
	movq	%rdi, -104(%rbp)
	movq	%rsi, -112(%rbp)
	movq	%fs:40, %rax
	movq	%rax, -8(%rbp)
	xorl	%eax, %eax
	movq	-112(%rbp), %rdx
	leaq	-32(%rbp), %rax
	movq	%rdx, %rsi
	movq	%rax, %rdi
	call	_ZNKSt9_IdentityIiEclERKi
	movq	%rax, %rdx
	movq	-104(%rbp), %rax
	movq	%rdx, %rsi
	movq	%rax, %rdi
	call	_ZNSt8_Rb_treeIiiSt9_IdentityIiESt4lessIiESaIiEE24_M_get_insert_unique_posERKi
	movq	%rax, -48(%rbp)
	movq	%rdx, -40(%rbp)
	movq	-40(%rbp), %rax
	testq	%rax, %rax
	je	.L81
	movq	-104(%rbp), %rdx
	leaq	-80(%rbp), %rax
	movq	%rdx, %rsi
	movq	%rax, %rdi
	call	_ZNSt8_Rb_treeIiiSt9_IdentityIiESt4lessIiESaIiEE11_Alloc_nodeC1ERS5_
	movb	$1, -81(%rbp)
	movq	-40(%rbp), %rdx
	movq	-48(%rbp), %rsi
	leaq	-80(%rbp), %rdi
	movq	-112(%rbp), %rcx
	movq	-104(%rbp), %rax
	movq	%rdi, %r8
	movq	%rax, %rdi
	call	_ZNSt8_Rb_treeIiiSt9_IdentityIiESt4lessIiESaIiEE10_M_insert_INS5_11_Alloc_nodeEEESt17_Rb_tree_iteratorIiEPSt18_Rb_tree_node_baseSB_RKiRT_
	movq	%rax, -64(%rbp)
	leaq	-81(%rbp), %rdx
	leaq	-64(%rbp), %rcx
	leaq	-32(%rbp), %rax
	movq	%rcx, %rsi
	movq	%rax, %rdi
	call	_ZNSt4pairISt17_Rb_tree_iteratorIiEbEC1ERKS1_RKb
	movq	-32(%rbp), %rax
	movq	-24(%rbp), %rdx
	jmp	.L83
.L81:
	movb	$0, -80(%rbp)
	movq	-48(%rbp), %rdx
	leaq	-64(%rbp), %rax
	movq	%rdx, %rsi
	movq	%rax, %rdi
	call	_ZNSt17_Rb_tree_iteratorIiEC1EPSt18_Rb_tree_node_base
	leaq	-80(%rbp), %rdx
	leaq	-64(%rbp), %rcx
	leaq	-32(%rbp), %rax
	movq	%rcx, %rsi
	movq	%rax, %rdi
	call	_ZNSt4pairISt17_Rb_tree_iteratorIiEbEC1ERKS1_RKb
	movq	-32(%rbp), %rax
	movq	-24(%rbp), %rdx
.L83:
	movq	-8(%rbp), %rcx
	xorq	%fs:40, %rcx
	je	.L84
	call	__stack_chk_fail
.L84:
	leave
	.cfi_def_cfa 7, 8
	ret
	.cfi_endproc
.LFE1458:
	.size	_ZNSt8_Rb_treeIiiSt9_IdentityIiESt4lessIiESaIiEE16_M_insert_uniqueERKi, .-_ZNSt8_Rb_treeIiiSt9_IdentityIiESt4lessIiESaIiEE16_M_insert_uniqueERKi
	.section	.text._ZNSt4pairISt23_Rb_tree_const_iteratorIiEbEC2ERKS1_RKb,"axG",@progbits,_ZNSt4pairISt23_Rb_tree_const_iteratorIiEbEC5ERKS1_RKb,comdat
	.align 2
	.weak	_ZNSt4pairISt23_Rb_tree_const_iteratorIiEbEC2ERKS1_RKb
	.type	_ZNSt4pairISt23_Rb_tree_const_iteratorIiEbEC2ERKS1_RKb, @function
_ZNSt4pairISt23_Rb_tree_const_iteratorIiEbEC2ERKS1_RKb:
.LFB1460:
	.cfi_startproc
	pushq	%rbp
	.cfi_def_cfa_offset 16
	.cfi_offset 6, -16
	movq	%rsp, %rbp
	.cfi_def_cfa_register 6
	movq	%rdi, -8(%rbp)
	movq	%rsi, -16(%rbp)
	movq	%rdx, -24(%rbp)
	movq	-8(%rbp), %rax
	movq	-16(%rbp), %rdx
	movq	(%rdx), %rdx
	movq	%rdx, (%rax)
	movq	-24(%rbp), %rax
	movzbl	(%rax), %edx
	movq	-8(%rbp), %rax
	movb	%dl, 8(%rax)
	nop
	popq	%rbp
	.cfi_def_cfa 7, 8
	ret
	.cfi_endproc
.LFE1460:
	.size	_ZNSt4pairISt23_Rb_tree_const_iteratorIiEbEC2ERKS1_RKb, .-_ZNSt4pairISt23_Rb_tree_const_iteratorIiEbEC2ERKS1_RKb
	.weak	_ZNSt4pairISt23_Rb_tree_const_iteratorIiEbEC1ERKS1_RKb
	.set	_ZNSt4pairISt23_Rb_tree_const_iteratorIiEbEC1ERKS1_RKb,_ZNSt4pairISt23_Rb_tree_const_iteratorIiEbEC2ERKS1_RKb
	.section	.text._ZSt6__sortIPiN9__gnu_cxx5__ops15_Iter_less_iterEEvT_S4_T0_,"axG",@progbits,_ZSt6__sortIPiN9__gnu_cxx5__ops15_Iter_less_iterEEvT_S4_T0_,comdat
	.weak	_ZSt6__sortIPiN9__gnu_cxx5__ops15_Iter_less_iterEEvT_S4_T0_
	.type	_ZSt6__sortIPiN9__gnu_cxx5__ops15_Iter_less_iterEEvT_S4_T0_, @function
_ZSt6__sortIPiN9__gnu_cxx5__ops15_Iter_less_iterEEvT_S4_T0_:
.LFB1462:
	.cfi_startproc
	pushq	%rbp
	.cfi_def_cfa_offset 16
	.cfi_offset 6, -16
	movq	%rsp, %rbp
	.cfi_def_cfa_register 6
	pushq	%r12
	pushq	%rbx
	subq	$16, %rsp
	.cfi_offset 12, -24
	.cfi_offset 3, -32
	movq	%rdi, -24(%rbp)
	movq	%rsi, -32(%rbp)
	movq	-24(%rbp), %rax
	cmpq	-32(%rbp), %rax
	je	.L88
	movq	-32(%rbp), %rdx
	movq	-24(%rbp), %rax
	subq	%rax, %rdx
	movq	%rdx, %rax
	sarq	$2, %rax
	movq	%rax, %rdi
	call	_ZSt4__lgl
	leaq	(%rax,%rax), %rdx
	movq	-32(%rbp), %rcx
	movq	-24(%rbp), %rax
	subq	$8, %rsp
	pushq	%r12
	movq	%rcx, %rsi
	movq	%rax, %rdi
	call	_ZSt16__introsort_loopIPilN9__gnu_cxx5__ops15_Iter_less_iterEEvT_S4_T0_T1_
	addq	$16, %rsp
	movq	-32(%rbp), %rdx
	movq	-24(%rbp), %rax
	subq	$8, %rsp
	pushq	%rbx
	movq	%rdx, %rsi
	movq	%rax, %rdi
	call	_ZSt22__final_insertion_sortIPiN9__gnu_cxx5__ops15_Iter_less_iterEEvT_S4_T0_
	addq	$16, %rsp
.L88:
	nop
	leaq	-16(%rbp), %rsp
	popq	%rbx
	popq	%r12
	popq	%rbp
	.cfi_def_cfa 7, 8
	ret
	.cfi_endproc
.LFE1462:
	.size	_ZSt6__sortIPiN9__gnu_cxx5__ops15_Iter_less_iterEEvT_S4_T0_, .-_ZSt6__sortIPiN9__gnu_cxx5__ops15_Iter_less_iterEEvT_S4_T0_
	.section	.text._ZSt8__uniqueIPiN9__gnu_cxx5__ops19_Iter_equal_to_iterEET_S4_S4_T0_,"axG",@progbits,_ZSt8__uniqueIPiN9__gnu_cxx5__ops19_Iter_equal_to_iterEET_S4_S4_T0_,comdat
	.weak	_ZSt8__uniqueIPiN9__gnu_cxx5__ops19_Iter_equal_to_iterEET_S4_S4_T0_
	.type	_ZSt8__uniqueIPiN9__gnu_cxx5__ops19_Iter_equal_to_iterEET_S4_S4_T0_, @function
_ZSt8__uniqueIPiN9__gnu_cxx5__ops19_Iter_equal_to_iterEET_S4_S4_T0_:
.LFB1463:
	.cfi_startproc
	pushq	%rbp
	.cfi_def_cfa_offset 16
	.cfi_offset 6, -16
	movq	%rsp, %rbp
	.cfi_def_cfa_register 6
	subq	$32, %rsp
	movq	%rdi, -24(%rbp)
	movq	%rsi, -32(%rbp)
	movq	-32(%rbp), %rdx
	movq	-24(%rbp), %rax
	subq	$8, %rsp
	pushq	%rcx
	movq	%rdx, %rsi
	movq	%rax, %rdi
	call	_ZSt15__adjacent_findIPiN9__gnu_cxx5__ops19_Iter_equal_to_iterEET_S4_S4_T0_
	addq	$16, %rsp
	movq	%rax, -24(%rbp)
	movq	-24(%rbp), %rax
	cmpq	-32(%rbp), %rax
	jne	.L90
	movq	-32(%rbp), %rax
	jmp	.L91
.L90:
	movq	-24(%rbp), %rax
	movq	%rax, -8(%rbp)
	addq	$4, -24(%rbp)
.L94:
	addq	$4, -24(%rbp)
	movq	-24(%rbp), %rax
	cmpq	-32(%rbp), %rax
	setne	%al
	testb	%al, %al
	je	.L92
	movq	-24(%rbp), %rdx
	movq	-8(%rbp), %rax
	movq	%rax, %rsi
	leaq	16(%rbp), %rdi
	call	_ZNK9__gnu_cxx5__ops19_Iter_equal_to_iterclIPiS3_EEbT_T0_
	xorl	$1, %eax
	testb	%al, %al
	je	.L94
	addq	$4, -8(%rbp)
	movq	-24(%rbp), %rax
	movl	(%rax), %edx
	movq	-8(%rbp), %rax
	movl	%edx, (%rax)
	jmp	.L94
.L92:
	addq	$4, -8(%rbp)
	movq	-8(%rbp), %rax
.L91:
	leave
	.cfi_def_cfa 7, 8
	ret
	.cfi_endproc
.LFE1463:
	.size	_ZSt8__uniqueIPiN9__gnu_cxx5__ops19_Iter_equal_to_iterEET_S4_S4_T0_, .-_ZSt8__uniqueIPiN9__gnu_cxx5__ops19_Iter_equal_to_iterEET_S4_S4_T0_
	.section	.text._ZSt13__lower_boundIPiiN9__gnu_cxx5__ops14_Iter_less_valEET_S4_S4_RKT0_T1_,"axG",@progbits,_ZSt13__lower_boundIPiiN9__gnu_cxx5__ops14_Iter_less_valEET_S4_S4_RKT0_T1_,comdat
	.weak	_ZSt13__lower_boundIPiiN9__gnu_cxx5__ops14_Iter_less_valEET_S4_S4_RKT0_T1_
	.type	_ZSt13__lower_boundIPiiN9__gnu_cxx5__ops14_Iter_less_valEET_S4_S4_RKT0_T1_, @function
_ZSt13__lower_boundIPiiN9__gnu_cxx5__ops14_Iter_less_valEET_S4_S4_RKT0_T1_:
.LFB1464:
	.cfi_startproc
	pushq	%rbp
	.cfi_def_cfa_offset 16
	.cfi_offset 6, -16
	movq	%rsp, %rbp
	.cfi_def_cfa_register 6
	subq	$64, %rsp
	movq	%rdi, -40(%rbp)
	movq	%rsi, -48(%rbp)
	movq	%rdx, -56(%rbp)
	movq	%fs:40, %rax
	movq	%rax, -8(%rbp)
	xorl	%eax, %eax
	movq	-48(%rbp), %rdx
	movq	-40(%rbp), %rax
	movq	%rdx, %rsi
	movq	%rax, %rdi
	call	_ZSt8distanceIPiENSt15iterator_traitsIT_E15difference_typeES2_S2_
	movq	%rax, -24(%rbp)
.L99:
	cmpq	$0, -24(%rbp)
	jle	.L96
	movq	-24(%rbp), %rax
	sarq	%rax
	movq	%rax, -16(%rbp)
	movq	-40(%rbp), %rax
	movq	%rax, -32(%rbp)
	movq	-16(%rbp), %rdx
	leaq	-32(%rbp), %rax
	movq	%rdx, %rsi
	movq	%rax, %rdi
	call	_ZSt7advanceIPilEvRT_T0_
	movq	-32(%rbp), %rax
	movq	-56(%rbp), %rdx
	movq	%rax, %rsi
	leaq	16(%rbp), %rdi
	call	_ZNK9__gnu_cxx5__ops14_Iter_less_valclIPiKiEEbT_RT0_
	testb	%al, %al
	je	.L97
	movq	-32(%rbp), %rax
	movq	%rax, -40(%rbp)
	addq	$4, -40(%rbp)
	movq	-24(%rbp), %rax
	subq	-16(%rbp), %rax
	subq	$1, %rax
	movq	%rax, -24(%rbp)
	jmp	.L99
.L97:
	movq	-16(%rbp), %rax
	movq	%rax, -24(%rbp)
	jmp	.L99
.L96:
	movq	-40(%rbp), %rax
	movq	-8(%rbp), %rcx
	xorq	%fs:40, %rcx
	je	.L101
	call	__stack_chk_fail
.L101:
	leave
	.cfi_def_cfa 7, 8
	ret
	.cfi_endproc
.LFE1464:
	.size	_ZSt13__lower_boundIPiiN9__gnu_cxx5__ops14_Iter_less_valEET_S4_S4_RKT0_T1_, .-_ZSt13__lower_boundIPiiN9__gnu_cxx5__ops14_Iter_less_valEET_S4_S4_RKT0_T1_
	.section	.text._ZNSt8_Rb_treeIiiSt9_IdentityIiESt4lessIiESaIiEE13_Rb_tree_implIS3_Lb0EEC2Ev,"axG",@progbits,_ZNSt8_Rb_treeIiiSt9_IdentityIiESt4lessIiESaIiEE13_Rb_tree_implIS3_Lb0EEC5Ev,comdat
	.align 2
	.weak	_ZNSt8_Rb_treeIiiSt9_IdentityIiESt4lessIiESaIiEE13_Rb_tree_implIS3_Lb0EEC2Ev
	.type	_ZNSt8_Rb_treeIiiSt9_IdentityIiESt4lessIiESaIiEE13_Rb_tree_implIS3_Lb0EEC2Ev, @function
_ZNSt8_Rb_treeIiiSt9_IdentityIiESt4lessIiESaIiEE13_Rb_tree_implIS3_Lb0EEC2Ev:
.LFB1466:
	.cfi_startproc
	pushq	%rbp
	.cfi_def_cfa_offset 16
	.cfi_offset 6, -16
	movq	%rsp, %rbp
	.cfi_def_cfa_register 6
	subq	$16, %rsp
	movq	%rdi, -8(%rbp)
	movq	-8(%rbp), %rax
	movq	%rax, %rdi
	call	_ZNSaISt13_Rb_tree_nodeIiEEC2Ev
	movq	-8(%rbp), %rax
	movl	$0, 8(%rax)
	movq	-8(%rbp), %rax
	movq	$0, 16(%rax)
	movq	-8(%rbp), %rax
	movq	$0, 24(%rax)
	movq	-8(%rbp), %rax
	movq	$0, 32(%rax)
	movq	-8(%rbp), %rax
	movq	$0, 40(%rax)
	movq	-8(%rbp), %rax
	movq	%rax, %rdi
	call	_ZNSt8_Rb_treeIiiSt9_IdentityIiESt4lessIiESaIiEE13_Rb_tree_implIS3_Lb0EE13_M_initializeEv
	nop
	leave
	.cfi_def_cfa 7, 8
	ret
	.cfi_endproc
.LFE1466:
	.size	_ZNSt8_Rb_treeIiiSt9_IdentityIiESt4lessIiESaIiEE13_Rb_tree_implIS3_Lb0EEC2Ev, .-_ZNSt8_Rb_treeIiiSt9_IdentityIiESt4lessIiESaIiEE13_Rb_tree_implIS3_Lb0EEC2Ev
	.weak	_ZNSt8_Rb_treeIiiSt9_IdentityIiESt4lessIiESaIiEE13_Rb_tree_implIS3_Lb0EEC1Ev
	.set	_ZNSt8_Rb_treeIiiSt9_IdentityIiESt4lessIiESaIiEE13_Rb_tree_implIS3_Lb0EEC1Ev,_ZNSt8_Rb_treeIiiSt9_IdentityIiESt4lessIiESaIiEE13_Rb_tree_implIS3_Lb0EEC2Ev
	.section	.text._ZNSaISt13_Rb_tree_nodeIiEED2Ev,"axG",@progbits,_ZNSaISt13_Rb_tree_nodeIiEED5Ev,comdat
	.align 2
	.weak	_ZNSaISt13_Rb_tree_nodeIiEED2Ev
	.type	_ZNSaISt13_Rb_tree_nodeIiEED2Ev, @function
_ZNSaISt13_Rb_tree_nodeIiEED2Ev:
.LFB1469:
	.cfi_startproc
	pushq	%rbp
	.cfi_def_cfa_offset 16
	.cfi_offset 6, -16
	movq	%rsp, %rbp
	.cfi_def_cfa_register 6
	subq	$16, %rsp
	movq	%rdi, -8(%rbp)
	movq	-8(%rbp), %rax
	movq	%rax, %rdi
	call	_ZN9__gnu_cxx13new_allocatorISt13_Rb_tree_nodeIiEED2Ev
	nop
	leave
	.cfi_def_cfa 7, 8
	ret
	.cfi_endproc
.LFE1469:
	.size	_ZNSaISt13_Rb_tree_nodeIiEED2Ev, .-_ZNSaISt13_Rb_tree_nodeIiEED2Ev
	.weak	_ZNSaISt13_Rb_tree_nodeIiEED1Ev
	.set	_ZNSaISt13_Rb_tree_nodeIiEED1Ev,_ZNSaISt13_Rb_tree_nodeIiEED2Ev
	.section	.text._ZNSt8_Rb_treeIiiSt9_IdentityIiESt4lessIiESaIiEE8_M_eraseEPSt13_Rb_tree_nodeIiE,"axG",@progbits,_ZNSt8_Rb_treeIiiSt9_IdentityIiESt4lessIiESaIiEE8_M_eraseEPSt13_Rb_tree_nodeIiE,comdat
	.align 2
	.weak	_ZNSt8_Rb_treeIiiSt9_IdentityIiESt4lessIiESaIiEE8_M_eraseEPSt13_Rb_tree_nodeIiE
	.type	_ZNSt8_Rb_treeIiiSt9_IdentityIiESt4lessIiESaIiEE8_M_eraseEPSt13_Rb_tree_nodeIiE, @function
_ZNSt8_Rb_treeIiiSt9_IdentityIiESt4lessIiESaIiEE8_M_eraseEPSt13_Rb_tree_nodeIiE:
.LFB1471:
	.cfi_startproc
	pushq	%rbp
	.cfi_def_cfa_offset 16
	.cfi_offset 6, -16
	movq	%rsp, %rbp
	.cfi_def_cfa_register 6
	subq	$32, %rsp
	movq	%rdi, -24(%rbp)
	movq	%rsi, -32(%rbp)
.L106:
	cmpq	$0, -32(%rbp)
	je	.L107
	movq	-32(%rbp), %rax
	movq	%rax, %rdi
	call	_ZNSt8_Rb_treeIiiSt9_IdentityIiESt4lessIiESaIiEE8_S_rightEPSt18_Rb_tree_node_base
	movq	%rax, %rdx
	movq	-24(%rbp), %rax
	movq	%rdx, %rsi
	movq	%rax, %rdi
	call	_ZNSt8_Rb_treeIiiSt9_IdentityIiESt4lessIiESaIiEE8_M_eraseEPSt13_Rb_tree_nodeIiE
	movq	-32(%rbp), %rax
	movq	%rax, %rdi
	call	_ZNSt8_Rb_treeIiiSt9_IdentityIiESt4lessIiESaIiEE7_S_leftEPSt18_Rb_tree_node_base
	movq	%rax, -8(%rbp)
	movq	-32(%rbp), %rdx
	movq	-24(%rbp), %rax
	movq	%rdx, %rsi
	movq	%rax, %rdi
	call	_ZNSt8_Rb_treeIiiSt9_IdentityIiESt4lessIiESaIiEE12_M_drop_nodeEPSt13_Rb_tree_nodeIiE
	movq	-8(%rbp), %rax
	movq	%rax, -32(%rbp)
	jmp	.L106
.L107:
	nop
	leave
	.cfi_def_cfa 7, 8
	ret
	.cfi_endproc
.LFE1471:
	.size	_ZNSt8_Rb_treeIiiSt9_IdentityIiESt4lessIiESaIiEE8_M_eraseEPSt13_Rb_tree_nodeIiE, .-_ZNSt8_Rb_treeIiiSt9_IdentityIiESt4lessIiESaIiEE8_M_eraseEPSt13_Rb_tree_nodeIiE
	.section	.text._ZNSt8_Rb_treeIiiSt9_IdentityIiESt4lessIiESaIiEE8_M_beginEv,"axG",@progbits,_ZNSt8_Rb_treeIiiSt9_IdentityIiESt4lessIiESaIiEE8_M_beginEv,comdat
	.align 2
	.weak	_ZNSt8_Rb_treeIiiSt9_IdentityIiESt4lessIiESaIiEE8_M_beginEv
	.type	_ZNSt8_Rb_treeIiiSt9_IdentityIiESt4lessIiESaIiEE8_M_beginEv, @function
_ZNSt8_Rb_treeIiiSt9_IdentityIiESt4lessIiESaIiEE8_M_beginEv:
.LFB1472:
	.cfi_startproc
	pushq	%rbp
	.cfi_def_cfa_offset 16
	.cfi_offset 6, -16
	movq	%rsp, %rbp
	.cfi_def_cfa_register 6
	movq	%rdi, -8(%rbp)
	movq	-8(%rbp), %rax
	movq	16(%rax), %rax
	popq	%rbp
	.cfi_def_cfa 7, 8
	ret
	.cfi_endproc
.LFE1472:
	.size	_ZNSt8_Rb_treeIiiSt9_IdentityIiESt4lessIiESaIiEE8_M_beginEv, .-_ZNSt8_Rb_treeIiiSt9_IdentityIiESt4lessIiESaIiEE8_M_beginEv
	.section	.text._ZNSt8_Rb_treeIiiSt9_IdentityIiESt4lessIiESaIiEE6_M_endEv,"axG",@progbits,_ZNSt8_Rb_treeIiiSt9_IdentityIiESt4lessIiESaIiEE6_M_endEv,comdat
	.align 2
	.weak	_ZNSt8_Rb_treeIiiSt9_IdentityIiESt4lessIiESaIiEE6_M_endEv
	.type	_ZNSt8_Rb_treeIiiSt9_IdentityIiESt4lessIiESaIiEE6_M_endEv, @function
_ZNSt8_Rb_treeIiiSt9_IdentityIiESt4lessIiESaIiEE6_M_endEv:
.LFB1473:
	.cfi_startproc
	pushq	%rbp
	.cfi_def_cfa_offset 16
	.cfi_offset 6, -16
	movq	%rsp, %rbp
	.cfi_def_cfa_register 6
	movq	%rdi, -8(%rbp)
	movq	-8(%rbp), %rax
	addq	$8, %rax
	popq	%rbp
	.cfi_def_cfa 7, 8
	ret
	.cfi_endproc
.LFE1473:
	.size	_ZNSt8_Rb_treeIiiSt9_IdentityIiESt4lessIiESaIiEE6_M_endEv, .-_ZNSt8_Rb_treeIiiSt9_IdentityIiESt4lessIiESaIiEE6_M_endEv
	.section	.text._ZNSt8_Rb_treeIiiSt9_IdentityIiESt4lessIiESaIiEE14_M_lower_boundEPSt13_Rb_tree_nodeIiES8_RKi,"axG",@progbits,_ZNSt8_Rb_treeIiiSt9_IdentityIiESt4lessIiESaIiEE14_M_lower_boundEPSt13_Rb_tree_nodeIiES8_RKi,comdat
	.align 2
	.weak	_ZNSt8_Rb_treeIiiSt9_IdentityIiESt4lessIiESaIiEE14_M_lower_boundEPSt13_Rb_tree_nodeIiES8_RKi
	.type	_ZNSt8_Rb_treeIiiSt9_IdentityIiESt4lessIiESaIiEE14_M_lower_boundEPSt13_Rb_tree_nodeIiES8_RKi, @function
_ZNSt8_Rb_treeIiiSt9_IdentityIiESt4lessIiESaIiEE14_M_lower_boundEPSt13_Rb_tree_nodeIiES8_RKi:
.LFB1474:
	.cfi_startproc
	pushq	%rbp
	.cfi_def_cfa_offset 16
	.cfi_offset 6, -16
	movq	%rsp, %rbp
	.cfi_def_cfa_register 6
	subq	$48, %rsp
	movq	%rdi, -24(%rbp)
	movq	%rsi, -32(%rbp)
	movq	%rdx, -40(%rbp)
	movq	%rcx, -48(%rbp)
	movq	%fs:40, %rax
	movq	%rax, -8(%rbp)
	xorl	%eax, %eax
.L116:
	cmpq	$0, -32(%rbp)
	je	.L113
	movq	-32(%rbp), %rax
	movq	%rax, %rdi
	call	_ZNSt8_Rb_treeIiiSt9_IdentityIiESt4lessIiESaIiEE6_S_keyEPKSt13_Rb_tree_nodeIiE
	movq	%rax, %rcx
	movq	-24(%rbp), %rax
	movq	-48(%rbp), %rdx
	movq	%rcx, %rsi
	movq	%rax, %rdi
	call	_ZNKSt4lessIiEclERKiS2_
	xorl	$1, %eax
	testb	%al, %al
	je	.L114
	movq	-32(%rbp), %rax
	movq	%rax, -40(%rbp)
	movq	-32(%rbp), %rax
	movq	%rax, %rdi
	call	_ZNSt8_Rb_treeIiiSt9_IdentityIiESt4lessIiESaIiEE7_S_leftEPSt18_Rb_tree_node_base
	movq	%rax, -32(%rbp)
	jmp	.L116
.L114:
	movq	-32(%rbp), %rax
	movq	%rax, %rdi
	call	_ZNSt8_Rb_treeIiiSt9_IdentityIiESt4lessIiESaIiEE8_S_rightEPSt18_Rb_tree_node_base
	movq	%rax, -32(%rbp)
	jmp	.L116
.L113:
	movq	-40(%rbp), %rdx
	leaq	-16(%rbp), %rax
	movq	%rdx, %rsi
	movq	%rax, %rdi
	call	_ZNSt17_Rb_tree_iteratorIiEC1EPSt18_Rb_tree_node_base
	movq	-16(%rbp), %rax
	movq	-8(%rbp), %rcx
	xorq	%fs:40, %rcx
	je	.L118
	call	__stack_chk_fail
.L118:
	leave
	.cfi_def_cfa 7, 8
	ret
	.cfi_endproc
.LFE1474:
	.size	_ZNSt8_Rb_treeIiiSt9_IdentityIiESt4lessIiESaIiEE14_M_lower_boundEPSt13_Rb_tree_nodeIiES8_RKi, .-_ZNSt8_Rb_treeIiiSt9_IdentityIiESt4lessIiESaIiEE14_M_lower_boundEPSt13_Rb_tree_nodeIiES8_RKi
	.section	.text._ZNSt8_Rb_treeIiiSt9_IdentityIiESt4lessIiESaIiEE3endEv,"axG",@progbits,_ZNSt8_Rb_treeIiiSt9_IdentityIiESt4lessIiESaIiEE3endEv,comdat
	.align 2
	.weak	_ZNSt8_Rb_treeIiiSt9_IdentityIiESt4lessIiESaIiEE3endEv
	.type	_ZNSt8_Rb_treeIiiSt9_IdentityIiESt4lessIiESaIiEE3endEv, @function
_ZNSt8_Rb_treeIiiSt9_IdentityIiESt4lessIiESaIiEE3endEv:
.LFB1475:
	.cfi_startproc
	pushq	%rbp
	.cfi_def_cfa_offset 16
	.cfi_offset 6, -16
	movq	%rsp, %rbp
	.cfi_def_cfa_register 6
	subq	$32, %rsp
	movq	%rdi, -24(%rbp)
	movq	%fs:40, %rax
	movq	%rax, -8(%rbp)
	xorl	%eax, %eax
	movq	-24(%rbp), %rax
	leaq	8(%rax), %rdx
	leaq	-16(%rbp), %rax
	movq	%rdx, %rsi
	movq	%rax, %rdi
	call	_ZNSt17_Rb_tree_iteratorIiEC1EPSt18_Rb_tree_node_base
	movq	-16(%rbp), %rax
	movq	-8(%rbp), %rcx
	xorq	%fs:40, %rcx
	je	.L121
	call	__stack_chk_fail
.L121:
	leave
	.cfi_def_cfa 7, 8
	ret
	.cfi_endproc
.LFE1475:
	.size	_ZNSt8_Rb_treeIiiSt9_IdentityIiESt4lessIiESaIiEE3endEv, .-_ZNSt8_Rb_treeIiiSt9_IdentityIiESt4lessIiESaIiEE3endEv
	.section	.text._ZNKSt17_Rb_tree_iteratorIiEeqERKS0_,"axG",@progbits,_ZNKSt17_Rb_tree_iteratorIiEeqERKS0_,comdat
	.align 2
	.weak	_ZNKSt17_Rb_tree_iteratorIiEeqERKS0_
	.type	_ZNKSt17_Rb_tree_iteratorIiEeqERKS0_, @function
_ZNKSt17_Rb_tree_iteratorIiEeqERKS0_:
.LFB1476:
	.cfi_startproc
	pushq	%rbp
	.cfi_def_cfa_offset 16
	.cfi_offset 6, -16
	movq	%rsp, %rbp
	.cfi_def_cfa_register 6
	movq	%rdi, -8(%rbp)
	movq	%rsi, -16(%rbp)
	movq	-8(%rbp), %rax
	movq	(%rax), %rdx
	movq	-16(%rbp), %rax
	movq	(%rax), %rax
	cmpq	%rax, %rdx
	sete	%al
	popq	%rbp
	.cfi_def_cfa 7, 8
	ret
	.cfi_endproc
.LFE1476:
	.size	_ZNKSt17_Rb_tree_iteratorIiEeqERKS0_, .-_ZNKSt17_Rb_tree_iteratorIiEeqERKS0_
	.section	.text._ZNSt8_Rb_treeIiiSt9_IdentityIiESt4lessIiESaIiEE6_S_keyEPKSt18_Rb_tree_node_base,"axG",@progbits,_ZNSt8_Rb_treeIiiSt9_IdentityIiESt4lessIiESaIiEE6_S_keyEPKSt18_Rb_tree_node_base,comdat
	.weak	_ZNSt8_Rb_treeIiiSt9_IdentityIiESt4lessIiESaIiEE6_S_keyEPKSt18_Rb_tree_node_base
	.type	_ZNSt8_Rb_treeIiiSt9_IdentityIiESt4lessIiESaIiEE6_S_keyEPKSt18_Rb_tree_node_base, @function
_ZNSt8_Rb_treeIiiSt9_IdentityIiESt4lessIiESaIiEE6_S_keyEPKSt18_Rb_tree_node_base:
.LFB1477:
	.cfi_startproc
	pushq	%rbp
	.cfi_def_cfa_offset 16
	.cfi_offset 6, -16
	movq	%rsp, %rbp
	.cfi_def_cfa_register 6
	subq	$32, %rsp
	movq	%rdi, -24(%rbp)
	movq	%fs:40, %rax
	movq	%rax, -8(%rbp)
	xorl	%eax, %eax
	movq	-24(%rbp), %rax
	movq	%rax, %rdi
	call	_ZNSt8_Rb_treeIiiSt9_IdentityIiESt4lessIiESaIiEE8_S_valueEPKSt18_Rb_tree_node_base
	movq	%rax, %rdx
	leaq	-9(%rbp), %rax
	movq	%rdx, %rsi
	movq	%rax, %rdi
	call	_ZNKSt9_IdentityIiEclERKi
	movq	-8(%rbp), %rcx
	xorq	%fs:40, %rcx
	je	.L126
	call	__stack_chk_fail
.L126:
	leave
	.cfi_def_cfa 7, 8
	ret
	.cfi_endproc
.LFE1477:
	.size	_ZNSt8_Rb_treeIiiSt9_IdentityIiESt4lessIiESaIiEE6_S_keyEPKSt18_Rb_tree_node_base, .-_ZNSt8_Rb_treeIiiSt9_IdentityIiESt4lessIiESaIiEE6_S_keyEPKSt18_Rb_tree_node_base
	.section	.text._ZNKSt4lessIiEclERKiS2_,"axG",@progbits,_ZNKSt4lessIiEclERKiS2_,comdat
	.align 2
	.weak	_ZNKSt4lessIiEclERKiS2_
	.type	_ZNKSt4lessIiEclERKiS2_, @function
_ZNKSt4lessIiEclERKiS2_:
.LFB1478:
	.cfi_startproc
	pushq	%rbp
	.cfi_def_cfa_offset 16
	.cfi_offset 6, -16
	movq	%rsp, %rbp
	.cfi_def_cfa_register 6
	movq	%rdi, -8(%rbp)
	movq	%rsi, -16(%rbp)
	movq	%rdx, -24(%rbp)
	movq	-16(%rbp), %rax
	movl	(%rax), %edx
	movq	-24(%rbp), %rax
	movl	(%rax), %eax
	cmpl	%eax, %edx
	setl	%al
	popq	%rbp
	.cfi_def_cfa 7, 8
	ret
	.cfi_endproc
.LFE1478:
	.size	_ZNKSt4lessIiEclERKiS2_, .-_ZNKSt4lessIiEclERKiS2_
	.section	.text._ZNSt23_Rb_tree_const_iteratorIiEC2EPKSt18_Rb_tree_node_base,"axG",@progbits,_ZNSt23_Rb_tree_const_iteratorIiEC5EPKSt18_Rb_tree_node_base,comdat
	.align 2
	.weak	_ZNSt23_Rb_tree_const_iteratorIiEC2EPKSt18_Rb_tree_node_base
	.type	_ZNSt23_Rb_tree_const_iteratorIiEC2EPKSt18_Rb_tree_node_base, @function
_ZNSt23_Rb_tree_const_iteratorIiEC2EPKSt18_Rb_tree_node_base:
.LFB1480:
	.cfi_startproc
	pushq	%rbp
	.cfi_def_cfa_offset 16
	.cfi_offset 6, -16
	movq	%rsp, %rbp
	.cfi_def_cfa_register 6
	movq	%rdi, -8(%rbp)
	movq	%rsi, -16(%rbp)
	movq	-8(%rbp), %rax
	movq	-16(%rbp), %rdx
	movq	%rdx, (%rax)
	nop
	popq	%rbp
	.cfi_def_cfa 7, 8
	ret
	.cfi_endproc
.LFE1480:
	.size	_ZNSt23_Rb_tree_const_iteratorIiEC2EPKSt18_Rb_tree_node_base, .-_ZNSt23_Rb_tree_const_iteratorIiEC2EPKSt18_Rb_tree_node_base
	.weak	_ZNSt23_Rb_tree_const_iteratorIiEC1EPKSt18_Rb_tree_node_base
	.set	_ZNSt23_Rb_tree_const_iteratorIiEC1EPKSt18_Rb_tree_node_base,_ZNSt23_Rb_tree_const_iteratorIiEC2EPKSt18_Rb_tree_node_base
	.section	.text._ZNSt8_Rb_treeIiiSt9_IdentityIiESt4lessIiESaIiEE24_M_get_insert_unique_posERKi,"axG",@progbits,_ZNSt8_Rb_treeIiiSt9_IdentityIiESt4lessIiESaIiEE24_M_get_insert_unique_posERKi,comdat
	.align 2
	.weak	_ZNSt8_Rb_treeIiiSt9_IdentityIiESt4lessIiESaIiEE24_M_get_insert_unique_posERKi
	.type	_ZNSt8_Rb_treeIiiSt9_IdentityIiESt4lessIiESaIiEE24_M_get_insert_unique_posERKi, @function
_ZNSt8_Rb_treeIiiSt9_IdentityIiESt4lessIiESaIiEE24_M_get_insert_unique_posERKi:
.LFB1482:
	.cfi_startproc
	pushq	%rbp
	.cfi_def_cfa_offset 16
	.cfi_offset 6, -16
	movq	%rsp, %rbp
	.cfi_def_cfa_register 6
	subq	$112, %rsp
	movq	%rdi, -104(%rbp)
	movq	%rsi, -112(%rbp)
	movq	%fs:40, %rax
	movq	%rax, -8(%rbp)
	xorl	%eax, %eax
	movq	-104(%rbp), %rax
	movq	%rax, %rdi
	call	_ZNSt8_Rb_treeIiiSt9_IdentityIiESt4lessIiESaIiEE8_M_beginEv
	movq	%rax, -48(%rbp)
	movq	-104(%rbp), %rax
	movq	%rax, %rdi
	call	_ZNSt8_Rb_treeIiiSt9_IdentityIiESt4lessIiESaIiEE6_M_endEv
	movq	%rax, -40(%rbp)
	movb	$1, -81(%rbp)
.L134:
	cmpq	$0, -48(%rbp)
	je	.L131
	movq	-48(%rbp), %rax
	movq	%rax, -40(%rbp)
	movq	-48(%rbp), %rax
	movq	%rax, %rdi
	call	_ZNSt8_Rb_treeIiiSt9_IdentityIiESt4lessIiESaIiEE6_S_keyEPKSt13_Rb_tree_nodeIiE
	movq	%rax, %rdx
	movq	-104(%rbp), %rax
	movq	-112(%rbp), %rcx
	movq	%rcx, %rsi
	movq	%rax, %rdi
	call	_ZNKSt4lessIiEclERKiS2_
	movb	%al, -81(%rbp)
	cmpb	$0, -81(%rbp)
	je	.L132
	movq	-48(%rbp), %rax
	movq	%rax, %rdi
	call	_ZNSt8_Rb_treeIiiSt9_IdentityIiESt4lessIiESaIiEE7_S_leftEPSt18_Rb_tree_node_base
	jmp	.L133
.L132:
	movq	-48(%rbp), %rax
	movq	%rax, %rdi
	call	_ZNSt8_Rb_treeIiiSt9_IdentityIiESt4lessIiESaIiEE8_S_rightEPSt18_Rb_tree_node_base
.L133:
	movq	%rax, -48(%rbp)
	jmp	.L134
.L131:
	movq	-40(%rbp), %rdx
	leaq	-80(%rbp), %rax
	movq	%rdx, %rsi
	movq	%rax, %rdi
	call	_ZNSt17_Rb_tree_iteratorIiEC1EPSt18_Rb_tree_node_base
	cmpb	$0, -81(%rbp)
	je	.L135
	movq	-104(%rbp), %rax
	movq	%rax, %rdi
	call	_ZNSt8_Rb_treeIiiSt9_IdentityIiESt4lessIiESaIiEE5beginEv
	movq	%rax, -32(%rbp)
	leaq	-32(%rbp), %rdx
	leaq	-80(%rbp), %rax
	movq	%rdx, %rsi
	movq	%rax, %rdi
	call	_ZNKSt17_Rb_tree_iteratorIiEeqERKS0_
	testb	%al, %al
	je	.L136
	movq	-40(%rbp), %rax
	movq	%rax, -56(%rbp)
	movq	-48(%rbp), %rax
	movq	%rax, -64(%rbp)
	leaq	-56(%rbp), %rdx
	leaq	-64(%rbp), %rcx
	leaq	-32(%rbp), %rax
	movq	%rcx, %rsi
	movq	%rax, %rdi
	call	_ZNSt4pairIPSt18_Rb_tree_node_baseS1_EC1ERKS1_S4_
	movq	-32(%rbp), %rax
	movq	-24(%rbp), %rdx
	jmp	.L139
.L136:
	leaq	-80(%rbp), %rax
	movq	%rax, %rdi
	call	_ZNSt17_Rb_tree_iteratorIiEmmEv
.L135:
	movq	-80(%rbp), %rax
	movq	%rax, %rdi
	call	_ZNSt8_Rb_treeIiiSt9_IdentityIiESt4lessIiESaIiEE6_S_keyEPKSt18_Rb_tree_node_base
	movq	%rax, %rcx
	movq	-104(%rbp), %rax
	movq	-112(%rbp), %rdx
	movq	%rcx, %rsi
	movq	%rax, %rdi
	call	_ZNKSt4lessIiEclERKiS2_
	testb	%al, %al
	je	.L138
	movq	-40(%rbp), %rax
	movq	%rax, -56(%rbp)
	movq	-48(%rbp), %rax
	movq	%rax, -64(%rbp)
	leaq	-56(%rbp), %rdx
	leaq	-64(%rbp), %rcx
	leaq	-32(%rbp), %rax
	movq	%rcx, %rsi
	movq	%rax, %rdi
	call	_ZNSt4pairIPSt18_Rb_tree_node_baseS1_EC1ERKS1_S4_
	movq	-32(%rbp), %rax
	movq	-24(%rbp), %rdx
	jmp	.L139
.L138:
	movq	$0, -56(%rbp)
	leaq	-56(%rbp), %rdx
	leaq	-80(%rbp), %rcx
	leaq	-32(%rbp), %rax
	movq	%rcx, %rsi
	movq	%rax, %rdi
	call	_ZNSt4pairIPSt18_Rb_tree_node_baseS1_EC1ERKS1_S4_
	movq	-32(%rbp), %rax
	movq	-24(%rbp), %rdx
.L139:
	movq	-8(%rbp), %rsi
	xorq	%fs:40, %rsi
	je	.L140
	call	__stack_chk_fail
.L140:
	leave
	.cfi_def_cfa 7, 8
	ret
	.cfi_endproc
.LFE1482:
	.size	_ZNSt8_Rb_treeIiiSt9_IdentityIiESt4lessIiESaIiEE24_M_get_insert_unique_posERKi, .-_ZNSt8_Rb_treeIiiSt9_IdentityIiESt4lessIiESaIiEE24_M_get_insert_unique_posERKi
	.section	.text._ZNKSt9_IdentityIiEclERKi,"axG",@progbits,_ZNKSt9_IdentityIiEclERKi,comdat
	.align 2
	.weak	_ZNKSt9_IdentityIiEclERKi
	.type	_ZNKSt9_IdentityIiEclERKi, @function
_ZNKSt9_IdentityIiEclERKi:
.LFB1483:
	.cfi_startproc
	pushq	%rbp
	.cfi_def_cfa_offset 16
	.cfi_offset 6, -16
	movq	%rsp, %rbp
	.cfi_def_cfa_register 6
	movq	%rdi, -8(%rbp)
	movq	%rsi, -16(%rbp)
	movq	-16(%rbp), %rax
	popq	%rbp
	.cfi_def_cfa 7, 8
	ret
	.cfi_endproc
.LFE1483:
	.size	_ZNKSt9_IdentityIiEclERKi, .-_ZNKSt9_IdentityIiEclERKi
	.section	.text._ZNSt8_Rb_treeIiiSt9_IdentityIiESt4lessIiESaIiEE11_Alloc_nodeC2ERS5_,"axG",@progbits,_ZNSt8_Rb_treeIiiSt9_IdentityIiESt4lessIiESaIiEE11_Alloc_nodeC5ERS5_,comdat
	.align 2
	.weak	_ZNSt8_Rb_treeIiiSt9_IdentityIiESt4lessIiESaIiEE11_Alloc_nodeC2ERS5_
	.type	_ZNSt8_Rb_treeIiiSt9_IdentityIiESt4lessIiESaIiEE11_Alloc_nodeC2ERS5_, @function
_ZNSt8_Rb_treeIiiSt9_IdentityIiESt4lessIiESaIiEE11_Alloc_nodeC2ERS5_:
.LFB1485:
	.cfi_startproc
	pushq	%rbp
	.cfi_def_cfa_offset 16
	.cfi_offset 6, -16
	movq	%rsp, %rbp
	.cfi_def_cfa_register 6
	movq	%rdi, -8(%rbp)
	movq	%rsi, -16(%rbp)
	movq	-8(%rbp), %rax
	movq	-16(%rbp), %rdx
	movq	%rdx, (%rax)
	nop
	popq	%rbp
	.cfi_def_cfa 7, 8
	ret
	.cfi_endproc
.LFE1485:
	.size	_ZNSt8_Rb_treeIiiSt9_IdentityIiESt4lessIiESaIiEE11_Alloc_nodeC2ERS5_, .-_ZNSt8_Rb_treeIiiSt9_IdentityIiESt4lessIiESaIiEE11_Alloc_nodeC2ERS5_
	.weak	_ZNSt8_Rb_treeIiiSt9_IdentityIiESt4lessIiESaIiEE11_Alloc_nodeC1ERS5_
	.set	_ZNSt8_Rb_treeIiiSt9_IdentityIiESt4lessIiESaIiEE11_Alloc_nodeC1ERS5_,_ZNSt8_Rb_treeIiiSt9_IdentityIiESt4lessIiESaIiEE11_Alloc_nodeC2ERS5_
	.section	.text._ZNSt8_Rb_treeIiiSt9_IdentityIiESt4lessIiESaIiEE10_M_insert_INS5_11_Alloc_nodeEEESt17_Rb_tree_iteratorIiEPSt18_Rb_tree_node_baseSB_RKiRT_,"axG",@progbits,_ZNSt8_Rb_treeIiiSt9_IdentityIiESt4lessIiESaIiEE10_M_insert_INS5_11_Alloc_nodeEEESt17_Rb_tree_iteratorIiEPSt18_Rb_tree_node_baseSB_RKiRT_,comdat
	.align 2
	.weak	_ZNSt8_Rb_treeIiiSt9_IdentityIiESt4lessIiESaIiEE10_M_insert_INS5_11_Alloc_nodeEEESt17_Rb_tree_iteratorIiEPSt18_Rb_tree_node_baseSB_RKiRT_
	.type	_ZNSt8_Rb_treeIiiSt9_IdentityIiESt4lessIiESaIiEE10_M_insert_INS5_11_Alloc_nodeEEESt17_Rb_tree_iteratorIiEPSt18_Rb_tree_node_baseSB_RKiRT_, @function
_ZNSt8_Rb_treeIiiSt9_IdentityIiESt4lessIiESaIiEE10_M_insert_INS5_11_Alloc_nodeEEESt17_Rb_tree_iteratorIiEPSt18_Rb_tree_node_baseSB_RKiRT_:
.LFB1487:
	.cfi_startproc
	.cfi_personality 0x3,__gxx_personality_v0
	.cfi_lsda 0x3,.LLSDA1487
	pushq	%rbp
	.cfi_def_cfa_offset 16
	.cfi_offset 6, -16
	movq	%rsp, %rbp
	.cfi_def_cfa_register 6
	pushq	%r12
	pushq	%rbx
	subq	$96, %rsp
	.cfi_offset 12, -24
	.cfi_offset 3, -32
	movq	%rdi, -72(%rbp)
	movq	%rsi, -80(%rbp)
	movq	%rdx, -88(%rbp)
	movq	%rcx, -96(%rbp)
	movq	%r8, -104(%rbp)
	movq	%fs:40, %rax
	movq	%rax, -24(%rbp)
	xorl	%eax, %eax
	movl	$0, %ebx
	cmpq	$0, -80(%rbp)
	jne	.L145
	movq	-72(%rbp), %rax
	movq	%rax, %rdi
	call	_ZNSt8_Rb_treeIiiSt9_IdentityIiESt4lessIiESaIiEE6_M_endEv
	cmpq	-88(%rbp), %rax
	je	.L145
	movq	-88(%rbp), %rax
	movq	%rax, %rdi
.LEHB5:
	call	_ZNSt8_Rb_treeIiiSt9_IdentityIiESt4lessIiESaIiEE6_S_keyEPKSt18_Rb_tree_node_base
.LEHE5:
	movq	%rax, %r12
	movl	$1, %ebx
	movq	-96(%rbp), %rdx
	leaq	-50(%rbp), %rax
	movq	%rdx, %rsi
	movq	%rax, %rdi
	call	_ZNKSt9_IdentityIiEclERKi
	movq	%rax, %rcx
	movq	-72(%rbp), %rax
	movq	%r12, %rdx
	movq	%rcx, %rsi
	movq	%rax, %rdi
	call	_ZNKSt4lessIiEclERKiS2_
	testb	%al, %al
	je	.L146
.L145:
	movl	$1, %eax
	jmp	.L147
.L146:
	movl	$0, %eax
.L147:
	movb	%al, -49(%rbp)
	testb	%bl, %bl
	nop
	movq	-96(%rbp), %rdx
	movq	-104(%rbp), %rax
	movq	%rdx, %rsi
	movq	%rax, %rdi
.LEHB6:
	call	_ZNKSt8_Rb_treeIiiSt9_IdentityIiESt4lessIiESaIiEE11_Alloc_nodeclIiEEPSt13_Rb_tree_nodeIiERKT_
	movq	%rax, -32(%rbp)
	movq	-72(%rbp), %rax
	leaq	8(%rax), %rcx
	movzbl	-49(%rbp), %eax
	movq	-88(%rbp), %rdx
	movq	-32(%rbp), %rsi
	movl	%eax, %edi
	call	_ZSt29_Rb_tree_insert_and_rebalancebPSt18_Rb_tree_node_baseS0_RS_
	movq	-72(%rbp), %rax
	movq	40(%rax), %rax
	leaq	1(%rax), %rdx
	movq	-72(%rbp), %rax
	movq	%rdx, 40(%rax)
	movq	-32(%rbp), %rdx
	leaq	-48(%rbp), %rax
	movq	%rdx, %rsi
	movq	%rax, %rdi
	call	_ZNSt17_Rb_tree_iteratorIiEC1EPSt18_Rb_tree_node_base
	movq	-48(%rbp), %rax
	movq	-24(%rbp), %rbx
	xorq	%fs:40, %rbx
	je	.L152
	jmp	.L154
.L153:
	testb	%bl, %bl
	nop
	movq	%rax, %rdi
	call	_Unwind_Resume
.LEHE6:
.L154:
	call	__stack_chk_fail
.L152:
	addq	$96, %rsp
	popq	%rbx
	popq	%r12
	popq	%rbp
	.cfi_def_cfa 7, 8
	ret
	.cfi_endproc
.LFE1487:
	.section	.gcc_except_table._ZNSt8_Rb_treeIiiSt9_IdentityIiESt4lessIiESaIiEE10_M_insert_INS5_11_Alloc_nodeEEESt17_Rb_tree_iteratorIiEPSt18_Rb_tree_node_baseSB_RKiRT_,"aG",@progbits,_ZNSt8_Rb_treeIiiSt9_IdentityIiESt4lessIiESaIiEE10_M_insert_INS5_11_Alloc_nodeEEESt17_Rb_tree_iteratorIiEPSt18_Rb_tree_node_baseSB_RKiRT_,comdat
.LLSDA1487:
	.byte	0xff
	.byte	0xff
	.byte	0x1
	.uleb128 .LLSDACSE1487-.LLSDACSB1487
.LLSDACSB1487:
	.uleb128 .LEHB5-.LFB1487
	.uleb128 .LEHE5-.LEHB5
	.uleb128 .L153-.LFB1487
	.uleb128 0
	.uleb128 .LEHB6-.LFB1487
	.uleb128 .LEHE6-.LEHB6
	.uleb128 0
	.uleb128 0
.LLSDACSE1487:
	.section	.text._ZNSt8_Rb_treeIiiSt9_IdentityIiESt4lessIiESaIiEE10_M_insert_INS5_11_Alloc_nodeEEESt17_Rb_tree_iteratorIiEPSt18_Rb_tree_node_baseSB_RKiRT_,"axG",@progbits,_ZNSt8_Rb_treeIiiSt9_IdentityIiESt4lessIiESaIiEE10_M_insert_INS5_11_Alloc_nodeEEESt17_Rb_tree_iteratorIiEPSt18_Rb_tree_node_baseSB_RKiRT_,comdat
	.size	_ZNSt8_Rb_treeIiiSt9_IdentityIiESt4lessIiESaIiEE10_M_insert_INS5_11_Alloc_nodeEEESt17_Rb_tree_iteratorIiEPSt18_Rb_tree_node_baseSB_RKiRT_, .-_ZNSt8_Rb_treeIiiSt9_IdentityIiESt4lessIiESaIiEE10_M_insert_INS5_11_Alloc_nodeEEESt17_Rb_tree_iteratorIiEPSt18_Rb_tree_node_baseSB_RKiRT_
	.section	.text._ZNSt4pairISt17_Rb_tree_iteratorIiEbEC2ERKS1_RKb,"axG",@progbits,_ZNSt4pairISt17_Rb_tree_iteratorIiEbEC5ERKS1_RKb,comdat
	.align 2
	.weak	_ZNSt4pairISt17_Rb_tree_iteratorIiEbEC2ERKS1_RKb
	.type	_ZNSt4pairISt17_Rb_tree_iteratorIiEbEC2ERKS1_RKb, @function
_ZNSt4pairISt17_Rb_tree_iteratorIiEbEC2ERKS1_RKb:
.LFB1489:
	.cfi_startproc
	pushq	%rbp
	.cfi_def_cfa_offset 16
	.cfi_offset 6, -16
	movq	%rsp, %rbp
	.cfi_def_cfa_register 6
	movq	%rdi, -8(%rbp)
	movq	%rsi, -16(%rbp)
	movq	%rdx, -24(%rbp)
	movq	-8(%rbp), %rax
	movq	-16(%rbp), %rdx
	movq	(%rdx), %rdx
	movq	%rdx, (%rax)
	movq	-24(%rbp), %rax
	movzbl	(%rax), %edx
	movq	-8(%rbp), %rax
	movb	%dl, 8(%rax)
	nop
	popq	%rbp
	.cfi_def_cfa 7, 8
	ret
	.cfi_endproc
.LFE1489:
	.size	_ZNSt4pairISt17_Rb_tree_iteratorIiEbEC2ERKS1_RKb, .-_ZNSt4pairISt17_Rb_tree_iteratorIiEbEC2ERKS1_RKb
	.weak	_ZNSt4pairISt17_Rb_tree_iteratorIiEbEC1ERKS1_RKb
	.set	_ZNSt4pairISt17_Rb_tree_iteratorIiEbEC1ERKS1_RKb,_ZNSt4pairISt17_Rb_tree_iteratorIiEbEC2ERKS1_RKb
	.section	.text._ZNSt17_Rb_tree_iteratorIiEC2EPSt18_Rb_tree_node_base,"axG",@progbits,_ZNSt17_Rb_tree_iteratorIiEC5EPSt18_Rb_tree_node_base,comdat
	.align 2
	.weak	_ZNSt17_Rb_tree_iteratorIiEC2EPSt18_Rb_tree_node_base
	.type	_ZNSt17_Rb_tree_iteratorIiEC2EPSt18_Rb_tree_node_base, @function
_ZNSt17_Rb_tree_iteratorIiEC2EPSt18_Rb_tree_node_base:
.LFB1492:
	.cfi_startproc
	pushq	%rbp
	.cfi_def_cfa_offset 16
	.cfi_offset 6, -16
	movq	%rsp, %rbp
	.cfi_def_cfa_register 6
	movq	%rdi, -8(%rbp)
	movq	%rsi, -16(%rbp)
	movq	-8(%rbp), %rax
	movq	-16(%rbp), %rdx
	movq	%rdx, (%rax)
	nop
	popq	%rbp
	.cfi_def_cfa 7, 8
	ret
	.cfi_endproc
.LFE1492:
	.size	_ZNSt17_Rb_tree_iteratorIiEC2EPSt18_Rb_tree_node_base, .-_ZNSt17_Rb_tree_iteratorIiEC2EPSt18_Rb_tree_node_base
	.weak	_ZNSt17_Rb_tree_iteratorIiEC1EPSt18_Rb_tree_node_base
	.set	_ZNSt17_Rb_tree_iteratorIiEC1EPSt18_Rb_tree_node_base,_ZNSt17_Rb_tree_iteratorIiEC2EPSt18_Rb_tree_node_base
	.section	.text._ZSt16__introsort_loopIPilN9__gnu_cxx5__ops15_Iter_less_iterEEvT_S4_T0_T1_,"axG",@progbits,_ZSt16__introsort_loopIPilN9__gnu_cxx5__ops15_Iter_less_iterEEvT_S4_T0_T1_,comdat
	.weak	_ZSt16__introsort_loopIPilN9__gnu_cxx5__ops15_Iter_less_iterEEvT_S4_T0_T1_
	.type	_ZSt16__introsort_loopIPilN9__gnu_cxx5__ops15_Iter_less_iterEEvT_S4_T0_T1_, @function
_ZSt16__introsort_loopIPilN9__gnu_cxx5__ops15_Iter_less_iterEEvT_S4_T0_T1_:
.LFB1494:
	.cfi_startproc
	pushq	%rbp
	.cfi_def_cfa_offset 16
	.cfi_offset 6, -16
	movq	%rsp, %rbp
	.cfi_def_cfa_register 6
	pushq	%r13
	pushq	%r12
	pushq	%rbx
	subq	$56, %rsp
	.cfi_offset 13, -24
	.cfi_offset 12, -32
	.cfi_offset 3, -40
	movq	%rdi, -56(%rbp)
	movq	%rsi, -64(%rbp)
	movq	%rdx, -72(%rbp)
.L160:
	movq	-64(%rbp), %rdx
	movq	-56(%rbp), %rax
	subq	%rax, %rdx
	movq	%rdx, %rax
	cmpq	$67, %rax
	jle	.L157
	cmpq	$0, -72(%rbp)
	jne	.L159
	movq	-64(%rbp), %rdx
	movq	-64(%rbp), %rcx
	movq	-56(%rbp), %rax
	subq	$8, %rsp
	pushq	%r13
	movq	%rcx, %rsi
	movq	%rax, %rdi
	call	_ZSt14__partial_sortIPiN9__gnu_cxx5__ops15_Iter_less_iterEEvT_S4_S4_T0_
	addq	$16, %rsp
	jmp	.L157
.L159:
	subq	$1, -72(%rbp)
	movq	-64(%rbp), %rdx
	movq	-56(%rbp), %rax
	subq	$8, %rsp
	pushq	%r12
	movq	%rdx, %rsi
	movq	%rax, %rdi
	call	_ZSt27__unguarded_partition_pivotIPiN9__gnu_cxx5__ops15_Iter_less_iterEET_S4_S4_T0_
	addq	$16, %rsp
	movq	%rax, -40(%rbp)
	movq	-72(%rbp), %rdx
	movq	-64(%rbp), %rcx
	movq	-40(%rbp), %rax
	subq	$8, %rsp
	pushq	%rbx
	movq	%rcx, %rsi
	movq	%rax, %rdi
	call	_ZSt16__introsort_loopIPilN9__gnu_cxx5__ops15_Iter_less_iterEEvT_S4_T0_T1_
	addq	$16, %rsp
	movq	-40(%rbp), %rax
	movq	%rax, -64(%rbp)
	jmp	.L160
.L157:
	leaq	-24(%rbp), %rsp
	popq	%rbx
	popq	%r12
	popq	%r13
	popq	%rbp
	.cfi_def_cfa 7, 8
	ret
	.cfi_endproc
.LFE1494:
	.size	_ZSt16__introsort_loopIPilN9__gnu_cxx5__ops15_Iter_less_iterEEvT_S4_T0_T1_, .-_ZSt16__introsort_loopIPilN9__gnu_cxx5__ops15_Iter_less_iterEEvT_S4_T0_T1_
	.section	.text._ZSt22__final_insertion_sortIPiN9__gnu_cxx5__ops15_Iter_less_iterEEvT_S4_T0_,"axG",@progbits,_ZSt22__final_insertion_sortIPiN9__gnu_cxx5__ops15_Iter_less_iterEEvT_S4_T0_,comdat
	.weak	_ZSt22__final_insertion_sortIPiN9__gnu_cxx5__ops15_Iter_less_iterEEvT_S4_T0_
	.type	_ZSt22__final_insertion_sortIPiN9__gnu_cxx5__ops15_Iter_less_iterEEvT_S4_T0_, @function
_ZSt22__final_insertion_sortIPiN9__gnu_cxx5__ops15_Iter_less_iterEEvT_S4_T0_:
.LFB1495:
	.cfi_startproc
	pushq	%rbp
	.cfi_def_cfa_offset 16
	.cfi_offset 6, -16
	movq	%rsp, %rbp
	.cfi_def_cfa_register 6
	pushq	%rbx
	subq	$24, %rsp
	.cfi_offset 3, -24
	movq	%rdi, -24(%rbp)
	movq	%rsi, -32(%rbp)
	movq	-32(%rbp), %rdx
	movq	-24(%rbp), %rax
	subq	%rax, %rdx
	movq	%rdx, %rax
	cmpq	$67, %rax
	jle	.L162
	movq	-24(%rbp), %rax
	leaq	64(%rax), %rdx
	movq	-24(%rbp), %rax
	subq	$8, %rsp
	pushq	%r8
	movq	%rdx, %rsi
	movq	%rax, %rdi
	call	_ZSt16__insertion_sortIPiN9__gnu_cxx5__ops15_Iter_less_iterEEvT_S4_T0_
	addq	$16, %rsp
	movq	-24(%rbp), %rax
	leaq	64(%rax), %rdx
	movq	-32(%rbp), %rax
	subq	$8, %rsp
	pushq	%rbx
	movq	%rax, %rsi
	movq	%rdx, %rdi
	call	_ZSt26__unguarded_insertion_sortIPiN9__gnu_cxx5__ops15_Iter_less_iterEEvT_S4_T0_
	addq	$16, %rsp
	jmp	.L164
.L162:
	movq	-32(%rbp), %rdx
	movq	-24(%rbp), %rax
	subq	$8, %rsp
	pushq	%rcx
	movq	%rdx, %rsi
	movq	%rax, %rdi
	call	_ZSt16__insertion_sortIPiN9__gnu_cxx5__ops15_Iter_less_iterEEvT_S4_T0_
	addq	$16, %rsp
.L164:
	nop
	movq	-8(%rbp), %rbx
	leave
	.cfi_def_cfa 7, 8
	ret
	.cfi_endproc
.LFE1495:
	.size	_ZSt22__final_insertion_sortIPiN9__gnu_cxx5__ops15_Iter_less_iterEEvT_S4_T0_, .-_ZSt22__final_insertion_sortIPiN9__gnu_cxx5__ops15_Iter_less_iterEEvT_S4_T0_
	.section	.text._ZSt15__adjacent_findIPiN9__gnu_cxx5__ops19_Iter_equal_to_iterEET_S4_S4_T0_,"axG",@progbits,_ZSt15__adjacent_findIPiN9__gnu_cxx5__ops19_Iter_equal_to_iterEET_S4_S4_T0_,comdat
	.weak	_ZSt15__adjacent_findIPiN9__gnu_cxx5__ops19_Iter_equal_to_iterEET_S4_S4_T0_
	.type	_ZSt15__adjacent_findIPiN9__gnu_cxx5__ops19_Iter_equal_to_iterEET_S4_S4_T0_, @function
_ZSt15__adjacent_findIPiN9__gnu_cxx5__ops19_Iter_equal_to_iterEET_S4_S4_T0_:
.LFB1496:
	.cfi_startproc
	pushq	%rbp
	.cfi_def_cfa_offset 16
	.cfi_offset 6, -16
	movq	%rsp, %rbp
	.cfi_def_cfa_register 6
	subq	$32, %rsp
	movq	%rdi, -24(%rbp)
	movq	%rsi, -32(%rbp)
	movq	-24(%rbp), %rax
	cmpq	-32(%rbp), %rax
	jne	.L166
	movq	-32(%rbp), %rax
	jmp	.L167
.L166:
	movq	-24(%rbp), %rax
	movq	%rax, -8(%rbp)
.L170:
	addq	$4, -8(%rbp)
	movq	-8(%rbp), %rax
	cmpq	-32(%rbp), %rax
	setne	%al
	testb	%al, %al
	je	.L168
	movq	-8(%rbp), %rdx
	movq	-24(%rbp), %rax
	movq	%rax, %rsi
	leaq	16(%rbp), %rdi
	call	_ZNK9__gnu_cxx5__ops19_Iter_equal_to_iterclIPiS3_EEbT_T0_
	testb	%al, %al
	je	.L169
	movq	-24(%rbp), %rax
	jmp	.L167
.L169:
	movq	-8(%rbp), %rax
	movq	%rax, -24(%rbp)
	jmp	.L170
.L168:
	movq	-32(%rbp), %rax
.L167:
	leave
	.cfi_def_cfa 7, 8
	ret
	.cfi_endproc
.LFE1496:
	.size	_ZSt15__adjacent_findIPiN9__gnu_cxx5__ops19_Iter_equal_to_iterEET_S4_S4_T0_, .-_ZSt15__adjacent_findIPiN9__gnu_cxx5__ops19_Iter_equal_to_iterEET_S4_S4_T0_
	.section	.text._ZNK9__gnu_cxx5__ops19_Iter_equal_to_iterclIPiS3_EEbT_T0_,"axG",@progbits,_ZNK9__gnu_cxx5__ops19_Iter_equal_to_iterclIPiS3_EEbT_T0_,comdat
	.align 2
	.weak	_ZNK9__gnu_cxx5__ops19_Iter_equal_to_iterclIPiS3_EEbT_T0_
	.type	_ZNK9__gnu_cxx5__ops19_Iter_equal_to_iterclIPiS3_EEbT_T0_, @function
_ZNK9__gnu_cxx5__ops19_Iter_equal_to_iterclIPiS3_EEbT_T0_:
.LFB1497:
	.cfi_startproc
	pushq	%rbp
	.cfi_def_cfa_offset 16
	.cfi_offset 6, -16
	movq	%rsp, %rbp
	.cfi_def_cfa_register 6
	movq	%rdi, -8(%rbp)
	movq	%rsi, -16(%rbp)
	movq	%rdx, -24(%rbp)
	movq	-16(%rbp), %rax
	movl	(%rax), %edx
	movq	-24(%rbp), %rax
	movl	(%rax), %eax
	cmpl	%eax, %edx
	sete	%al
	popq	%rbp
	.cfi_def_cfa 7, 8
	ret
	.cfi_endproc
.LFE1497:
	.size	_ZNK9__gnu_cxx5__ops19_Iter_equal_to_iterclIPiS3_EEbT_T0_, .-_ZNK9__gnu_cxx5__ops19_Iter_equal_to_iterclIPiS3_EEbT_T0_
	.section	.text._ZSt8distanceIPiENSt15iterator_traitsIT_E15difference_typeES2_S2_,"axG",@progbits,_ZSt8distanceIPiENSt15iterator_traitsIT_E15difference_typeES2_S2_,comdat
	.weak	_ZSt8distanceIPiENSt15iterator_traitsIT_E15difference_typeES2_S2_
	.type	_ZSt8distanceIPiENSt15iterator_traitsIT_E15difference_typeES2_S2_, @function
_ZSt8distanceIPiENSt15iterator_traitsIT_E15difference_typeES2_S2_:
.LFB1498:
	.cfi_startproc
	pushq	%rbp
	.cfi_def_cfa_offset 16
	.cfi_offset 6, -16
	movq	%rsp, %rbp
	.cfi_def_cfa_register 6
	pushq	%rbx
	subq	$40, %rsp
	.cfi_offset 3, -24
	movq	%rdi, -40(%rbp)
	movq	%rsi, -48(%rbp)
	movq	%fs:40, %rax
	movq	%rax, -24(%rbp)
	xorl	%eax, %eax
	leaq	-40(%rbp), %rax
	movq	%rax, %rdi
	call	_ZSt19__iterator_categoryIPiENSt15iterator_traitsIT_E17iterator_categoryERKS2_
	movq	-40(%rbp), %rax
	movq	-48(%rbp), %rdx
	subq	$8, %rsp
	pushq	%rbx
	movq	%rdx, %rsi
	movq	%rax, %rdi
	call	_ZSt10__distanceIPiENSt15iterator_traitsIT_E15difference_typeES2_S2_St26random_access_iterator_tag
	addq	$16, %rsp
	movq	-24(%rbp), %rcx
	xorq	%fs:40, %rcx
	je	.L175
	call	__stack_chk_fail
.L175:
	movq	-8(%rbp), %rbx
	leave
	.cfi_def_cfa 7, 8
	ret
	.cfi_endproc
.LFE1498:
	.size	_ZSt8distanceIPiENSt15iterator_traitsIT_E15difference_typeES2_S2_, .-_ZSt8distanceIPiENSt15iterator_traitsIT_E15difference_typeES2_S2_
	.section	.text._ZSt7advanceIPilEvRT_T0_,"axG",@progbits,_ZSt7advanceIPilEvRT_T0_,comdat
	.weak	_ZSt7advanceIPilEvRT_T0_
	.type	_ZSt7advanceIPilEvRT_T0_, @function
_ZSt7advanceIPilEvRT_T0_:
.LFB1499:
	.cfi_startproc
	pushq	%rbp
	.cfi_def_cfa_offset 16
	.cfi_offset 6, -16
	movq	%rsp, %rbp
	.cfi_def_cfa_register 6
	pushq	%rbx
	subq	$56, %rsp
	.cfi_offset 3, -24
	movq	%rdi, -56(%rbp)
	movq	%rsi, -64(%rbp)
	movq	%fs:40, %rax
	movq	%rax, -24(%rbp)
	xorl	%eax, %eax
	movq	-64(%rbp), %rax
	movq	%rax, -32(%rbp)
	movq	-56(%rbp), %rax
	movq	%rax, %rdi
	call	_ZSt19__iterator_categoryIPiENSt15iterator_traitsIT_E17iterator_categoryERKS2_
	movq	-32(%rbp), %rdx
	movq	-56(%rbp), %rax
	subq	$8, %rsp
	pushq	%rbx
	movq	%rdx, %rsi
	movq	%rax, %rdi
	call	_ZSt9__advanceIPilEvRT_T0_St26random_access_iterator_tag
	addq	$16, %rsp
	nop
	movq	-24(%rbp), %rax
	xorq	%fs:40, %rax
	je	.L177
	call	__stack_chk_fail
.L177:
	movq	-8(%rbp), %rbx
	leave
	.cfi_def_cfa 7, 8
	ret
	.cfi_endproc
.LFE1499:
	.size	_ZSt7advanceIPilEvRT_T0_, .-_ZSt7advanceIPilEvRT_T0_
	.section	.text._ZNK9__gnu_cxx5__ops14_Iter_less_valclIPiKiEEbT_RT0_,"axG",@progbits,_ZNK9__gnu_cxx5__ops14_Iter_less_valclIPiKiEEbT_RT0_,comdat
	.align 2
	.weak	_ZNK9__gnu_cxx5__ops14_Iter_less_valclIPiKiEEbT_RT0_
	.type	_ZNK9__gnu_cxx5__ops14_Iter_less_valclIPiKiEEbT_RT0_, @function
_ZNK9__gnu_cxx5__ops14_Iter_less_valclIPiKiEEbT_RT0_:
.LFB1500:
	.cfi_startproc
	pushq	%rbp
	.cfi_def_cfa_offset 16
	.cfi_offset 6, -16
	movq	%rsp, %rbp
	.cfi_def_cfa_register 6
	movq	%rdi, -8(%rbp)
	movq	%rsi, -16(%rbp)
	movq	%rdx, -24(%rbp)
	movq	-16(%rbp), %rax
	movl	(%rax), %edx
	movq	-24(%rbp), %rax
	movl	(%rax), %eax
	cmpl	%eax, %edx
	setl	%al
	popq	%rbp
	.cfi_def_cfa 7, 8
	ret
	.cfi_endproc
.LFE1500:
	.size	_ZNK9__gnu_cxx5__ops14_Iter_less_valclIPiKiEEbT_RT0_, .-_ZNK9__gnu_cxx5__ops14_Iter_less_valclIPiKiEEbT_RT0_
	.section	.text._ZNSaISt13_Rb_tree_nodeIiEEC2Ev,"axG",@progbits,_ZNSaISt13_Rb_tree_nodeIiEEC5Ev,comdat
	.align 2
	.weak	_ZNSaISt13_Rb_tree_nodeIiEEC2Ev
	.type	_ZNSaISt13_Rb_tree_nodeIiEEC2Ev, @function
_ZNSaISt13_Rb_tree_nodeIiEEC2Ev:
.LFB1502:
	.cfi_startproc
	pushq	%rbp
	.cfi_def_cfa_offset 16
	.cfi_offset 6, -16
	movq	%rsp, %rbp
	.cfi_def_cfa_register 6
	subq	$16, %rsp
	movq	%rdi, -8(%rbp)
	movq	-8(%rbp), %rax
	movq	%rax, %rdi
	call	_ZN9__gnu_cxx13new_allocatorISt13_Rb_tree_nodeIiEEC2Ev
	nop
	leave
	.cfi_def_cfa 7, 8
	ret
	.cfi_endproc
.LFE1502:
	.size	_ZNSaISt13_Rb_tree_nodeIiEEC2Ev, .-_ZNSaISt13_Rb_tree_nodeIiEEC2Ev
	.weak	_ZNSaISt13_Rb_tree_nodeIiEEC1Ev
	.set	_ZNSaISt13_Rb_tree_nodeIiEEC1Ev,_ZNSaISt13_Rb_tree_nodeIiEEC2Ev
	.section	.text._ZNSt8_Rb_treeIiiSt9_IdentityIiESt4lessIiESaIiEE13_Rb_tree_implIS3_Lb0EE13_M_initializeEv,"axG",@progbits,_ZNSt8_Rb_treeIiiSt9_IdentityIiESt4lessIiESaIiEE13_Rb_tree_implIS3_Lb0EE13_M_initializeEv,comdat
	.align 2
	.weak	_ZNSt8_Rb_treeIiiSt9_IdentityIiESt4lessIiESaIiEE13_Rb_tree_implIS3_Lb0EE13_M_initializeEv
	.type	_ZNSt8_Rb_treeIiiSt9_IdentityIiESt4lessIiESaIiEE13_Rb_tree_implIS3_Lb0EE13_M_initializeEv, @function
_ZNSt8_Rb_treeIiiSt9_IdentityIiESt4lessIiESaIiEE13_Rb_tree_implIS3_Lb0EE13_M_initializeEv:
.LFB1504:
	.cfi_startproc
	pushq	%rbp
	.cfi_def_cfa_offset 16
	.cfi_offset 6, -16
	movq	%rsp, %rbp
	.cfi_def_cfa_register 6
	movq	%rdi, -8(%rbp)
	movq	-8(%rbp), %rax
	movl	$0, 8(%rax)
	movq	-8(%rbp), %rax
	movq	$0, 16(%rax)
	movq	-8(%rbp), %rax
	leaq	8(%rax), %rdx
	movq	-8(%rbp), %rax
	movq	%rdx, 24(%rax)
	movq	-8(%rbp), %rax
	leaq	8(%rax), %rdx
	movq	-8(%rbp), %rax
	movq	%rdx, 32(%rax)
	nop
	popq	%rbp
	.cfi_def_cfa 7, 8
	ret
	.cfi_endproc
.LFE1504:
	.size	_ZNSt8_Rb_treeIiiSt9_IdentityIiESt4lessIiESaIiEE13_Rb_tree_implIS3_Lb0EE13_M_initializeEv, .-_ZNSt8_Rb_treeIiiSt9_IdentityIiESt4lessIiESaIiEE13_Rb_tree_implIS3_Lb0EE13_M_initializeEv
	.section	.text._ZN9__gnu_cxx13new_allocatorISt13_Rb_tree_nodeIiEED2Ev,"axG",@progbits,_ZN9__gnu_cxx13new_allocatorISt13_Rb_tree_nodeIiEED5Ev,comdat
	.align 2
	.weak	_ZN9__gnu_cxx13new_allocatorISt13_Rb_tree_nodeIiEED2Ev
	.type	_ZN9__gnu_cxx13new_allocatorISt13_Rb_tree_nodeIiEED2Ev, @function
_ZN9__gnu_cxx13new_allocatorISt13_Rb_tree_nodeIiEED2Ev:
.LFB1506:
	.cfi_startproc
	pushq	%rbp
	.cfi_def_cfa_offset 16
	.cfi_offset 6, -16
	movq	%rsp, %rbp
	.cfi_def_cfa_register 6
	movq	%rdi, -8(%rbp)
	nop
	popq	%rbp
	.cfi_def_cfa 7, 8
	ret
	.cfi_endproc
.LFE1506:
	.size	_ZN9__gnu_cxx13new_allocatorISt13_Rb_tree_nodeIiEED2Ev, .-_ZN9__gnu_cxx13new_allocatorISt13_Rb_tree_nodeIiEED2Ev
	.weak	_ZN9__gnu_cxx13new_allocatorISt13_Rb_tree_nodeIiEED1Ev
	.set	_ZN9__gnu_cxx13new_allocatorISt13_Rb_tree_nodeIiEED1Ev,_ZN9__gnu_cxx13new_allocatorISt13_Rb_tree_nodeIiEED2Ev
	.section	.text._ZNSt8_Rb_treeIiiSt9_IdentityIiESt4lessIiESaIiEE8_S_rightEPSt18_Rb_tree_node_base,"axG",@progbits,_ZNSt8_Rb_treeIiiSt9_IdentityIiESt4lessIiESaIiEE8_S_rightEPSt18_Rb_tree_node_base,comdat
	.weak	_ZNSt8_Rb_treeIiiSt9_IdentityIiESt4lessIiESaIiEE8_S_rightEPSt18_Rb_tree_node_base
	.type	_ZNSt8_Rb_treeIiiSt9_IdentityIiESt4lessIiESaIiEE8_S_rightEPSt18_Rb_tree_node_base, @function
_ZNSt8_Rb_treeIiiSt9_IdentityIiESt4lessIiESaIiEE8_S_rightEPSt18_Rb_tree_node_base:
.LFB1508:
	.cfi_startproc
	pushq	%rbp
	.cfi_def_cfa_offset 16
	.cfi_offset 6, -16
	movq	%rsp, %rbp
	.cfi_def_cfa_register 6
	movq	%rdi, -8(%rbp)
	movq	-8(%rbp), %rax
	movq	24(%rax), %rax
	popq	%rbp
	.cfi_def_cfa 7, 8
	ret
	.cfi_endproc
.LFE1508:
	.size	_ZNSt8_Rb_treeIiiSt9_IdentityIiESt4lessIiESaIiEE8_S_rightEPSt18_Rb_tree_node_base, .-_ZNSt8_Rb_treeIiiSt9_IdentityIiESt4lessIiESaIiEE8_S_rightEPSt18_Rb_tree_node_base
	.section	.text._ZNSt8_Rb_treeIiiSt9_IdentityIiESt4lessIiESaIiEE7_S_leftEPSt18_Rb_tree_node_base,"axG",@progbits,_ZNSt8_Rb_treeIiiSt9_IdentityIiESt4lessIiESaIiEE7_S_leftEPSt18_Rb_tree_node_base,comdat
	.weak	_ZNSt8_Rb_treeIiiSt9_IdentityIiESt4lessIiESaIiEE7_S_leftEPSt18_Rb_tree_node_base
	.type	_ZNSt8_Rb_treeIiiSt9_IdentityIiESt4lessIiESaIiEE7_S_leftEPSt18_Rb_tree_node_base, @function
_ZNSt8_Rb_treeIiiSt9_IdentityIiESt4lessIiESaIiEE7_S_leftEPSt18_Rb_tree_node_base:
.LFB1509:
	.cfi_startproc
	pushq	%rbp
	.cfi_def_cfa_offset 16
	.cfi_offset 6, -16
	movq	%rsp, %rbp
	.cfi_def_cfa_register 6
	movq	%rdi, -8(%rbp)
	movq	-8(%rbp), %rax
	movq	16(%rax), %rax
	popq	%rbp
	.cfi_def_cfa 7, 8
	ret
	.cfi_endproc
.LFE1509:
	.size	_ZNSt8_Rb_treeIiiSt9_IdentityIiESt4lessIiESaIiEE7_S_leftEPSt18_Rb_tree_node_base, .-_ZNSt8_Rb_treeIiiSt9_IdentityIiESt4lessIiESaIiEE7_S_leftEPSt18_Rb_tree_node_base
	.section	.text._ZNSt8_Rb_treeIiiSt9_IdentityIiESt4lessIiESaIiEE12_M_drop_nodeEPSt13_Rb_tree_nodeIiE,"axG",@progbits,_ZNSt8_Rb_treeIiiSt9_IdentityIiESt4lessIiESaIiEE12_M_drop_nodeEPSt13_Rb_tree_nodeIiE,comdat
	.align 2
	.weak	_ZNSt8_Rb_treeIiiSt9_IdentityIiESt4lessIiESaIiEE12_M_drop_nodeEPSt13_Rb_tree_nodeIiE
	.type	_ZNSt8_Rb_treeIiiSt9_IdentityIiESt4lessIiESaIiEE12_M_drop_nodeEPSt13_Rb_tree_nodeIiE, @function
_ZNSt8_Rb_treeIiiSt9_IdentityIiESt4lessIiESaIiEE12_M_drop_nodeEPSt13_Rb_tree_nodeIiE:
.LFB1510:
	.cfi_startproc
	pushq	%rbp
	.cfi_def_cfa_offset 16
	.cfi_offset 6, -16
	movq	%rsp, %rbp
	.cfi_def_cfa_register 6
	subq	$16, %rsp
	movq	%rdi, -8(%rbp)
	movq	%rsi, -16(%rbp)
	movq	-16(%rbp), %rdx
	movq	-8(%rbp), %rax
	movq	%rdx, %rsi
	movq	%rax, %rdi
	call	_ZNSt8_Rb_treeIiiSt9_IdentityIiESt4lessIiESaIiEE15_M_destroy_nodeEPSt13_Rb_tree_nodeIiE
	movq	-16(%rbp), %rdx
	movq	-8(%rbp), %rax
	movq	%rdx, %rsi
	movq	%rax, %rdi
	call	_ZNSt8_Rb_treeIiiSt9_IdentityIiESt4lessIiESaIiEE11_M_put_nodeEPSt13_Rb_tree_nodeIiE
	nop
	leave
	.cfi_def_cfa 7, 8
	ret
	.cfi_endproc
.LFE1510:
	.size	_ZNSt8_Rb_treeIiiSt9_IdentityIiESt4lessIiESaIiEE12_M_drop_nodeEPSt13_Rb_tree_nodeIiE, .-_ZNSt8_Rb_treeIiiSt9_IdentityIiESt4lessIiESaIiEE12_M_drop_nodeEPSt13_Rb_tree_nodeIiE
	.section	.text._ZNSt8_Rb_treeIiiSt9_IdentityIiESt4lessIiESaIiEE6_S_keyEPKSt13_Rb_tree_nodeIiE,"axG",@progbits,_ZNSt8_Rb_treeIiiSt9_IdentityIiESt4lessIiESaIiEE6_S_keyEPKSt13_Rb_tree_nodeIiE,comdat
	.weak	_ZNSt8_Rb_treeIiiSt9_IdentityIiESt4lessIiESaIiEE6_S_keyEPKSt13_Rb_tree_nodeIiE
	.type	_ZNSt8_Rb_treeIiiSt9_IdentityIiESt4lessIiESaIiEE6_S_keyEPKSt13_Rb_tree_nodeIiE, @function
_ZNSt8_Rb_treeIiiSt9_IdentityIiESt4lessIiESaIiEE6_S_keyEPKSt13_Rb_tree_nodeIiE:
.LFB1511:
	.cfi_startproc
	pushq	%rbp
	.cfi_def_cfa_offset 16
	.cfi_offset 6, -16
	movq	%rsp, %rbp
	.cfi_def_cfa_register 6
	subq	$32, %rsp
	movq	%rdi, -24(%rbp)
	movq	%fs:40, %rax
	movq	%rax, -8(%rbp)
	xorl	%eax, %eax
	movq	-24(%rbp), %rax
	movq	%rax, %rdi
	call	_ZNSt8_Rb_treeIiiSt9_IdentityIiESt4lessIiESaIiEE8_S_valueEPKSt13_Rb_tree_nodeIiE
	movq	%rax, %rdx
	leaq	-9(%rbp), %rax
	movq	%rdx, %rsi
	movq	%rax, %rdi
	call	_ZNKSt9_IdentityIiEclERKi
	movq	-8(%rbp), %rcx
	xorq	%fs:40, %rcx
	je	.L190
	call	__stack_chk_fail
.L190:
	leave
	.cfi_def_cfa 7, 8
	ret
	.cfi_endproc
.LFE1511:
	.size	_ZNSt8_Rb_treeIiiSt9_IdentityIiESt4lessIiESaIiEE6_S_keyEPKSt13_Rb_tree_nodeIiE, .-_ZNSt8_Rb_treeIiiSt9_IdentityIiESt4lessIiESaIiEE6_S_keyEPKSt13_Rb_tree_nodeIiE
	.section	.text._ZNSt8_Rb_treeIiiSt9_IdentityIiESt4lessIiESaIiEE8_S_valueEPKSt18_Rb_tree_node_base,"axG",@progbits,_ZNSt8_Rb_treeIiiSt9_IdentityIiESt4lessIiESaIiEE8_S_valueEPKSt18_Rb_tree_node_base,comdat
	.weak	_ZNSt8_Rb_treeIiiSt9_IdentityIiESt4lessIiESaIiEE8_S_valueEPKSt18_Rb_tree_node_base
	.type	_ZNSt8_Rb_treeIiiSt9_IdentityIiESt4lessIiESaIiEE8_S_valueEPKSt18_Rb_tree_node_base, @function
_ZNSt8_Rb_treeIiiSt9_IdentityIiESt4lessIiESaIiEE8_S_valueEPKSt18_Rb_tree_node_base:
.LFB1512:
	.cfi_startproc
	pushq	%rbp
	.cfi_def_cfa_offset 16
	.cfi_offset 6, -16
	movq	%rsp, %rbp
	.cfi_def_cfa_register 6
	subq	$16, %rsp
	movq	%rdi, -8(%rbp)
	movq	-8(%rbp), %rax
	movq	%rax, %rdi
	call	_ZNKSt13_Rb_tree_nodeIiE9_M_valptrEv
	leave
	.cfi_def_cfa 7, 8
	ret
	.cfi_endproc
.LFE1512:
	.size	_ZNSt8_Rb_treeIiiSt9_IdentityIiESt4lessIiESaIiEE8_S_valueEPKSt18_Rb_tree_node_base, .-_ZNSt8_Rb_treeIiiSt9_IdentityIiESt4lessIiESaIiEE8_S_valueEPKSt18_Rb_tree_node_base
	.section	.text._ZNSt8_Rb_treeIiiSt9_IdentityIiESt4lessIiESaIiEE5beginEv,"axG",@progbits,_ZNSt8_Rb_treeIiiSt9_IdentityIiESt4lessIiESaIiEE5beginEv,comdat
	.align 2
	.weak	_ZNSt8_Rb_treeIiiSt9_IdentityIiESt4lessIiESaIiEE5beginEv
	.type	_ZNSt8_Rb_treeIiiSt9_IdentityIiESt4lessIiESaIiEE5beginEv, @function
_ZNSt8_Rb_treeIiiSt9_IdentityIiESt4lessIiESaIiEE5beginEv:
.LFB1513:
	.cfi_startproc
	pushq	%rbp
	.cfi_def_cfa_offset 16
	.cfi_offset 6, -16
	movq	%rsp, %rbp
	.cfi_def_cfa_register 6
	subq	$32, %rsp
	movq	%rdi, -24(%rbp)
	movq	%fs:40, %rax
	movq	%rax, -8(%rbp)
	xorl	%eax, %eax
	movq	-24(%rbp), %rax
	movq	24(%rax), %rdx
	leaq	-16(%rbp), %rax
	movq	%rdx, %rsi
	movq	%rax, %rdi
	call	_ZNSt17_Rb_tree_iteratorIiEC1EPSt18_Rb_tree_node_base
	movq	-16(%rbp), %rax
	movq	-8(%rbp), %rcx
	xorq	%fs:40, %rcx
	je	.L195
	call	__stack_chk_fail
.L195:
	leave
	.cfi_def_cfa 7, 8
	ret
	.cfi_endproc
.LFE1513:
	.size	_ZNSt8_Rb_treeIiiSt9_IdentityIiESt4lessIiESaIiEE5beginEv, .-_ZNSt8_Rb_treeIiiSt9_IdentityIiESt4lessIiESaIiEE5beginEv
	.section	.text._ZNSt4pairIPSt18_Rb_tree_node_baseS1_EC2ERKS1_S4_,"axG",@progbits,_ZNSt4pairIPSt18_Rb_tree_node_baseS1_EC5ERKS1_S4_,comdat
	.align 2
	.weak	_ZNSt4pairIPSt18_Rb_tree_node_baseS1_EC2ERKS1_S4_
	.type	_ZNSt4pairIPSt18_Rb_tree_node_baseS1_EC2ERKS1_S4_, @function
_ZNSt4pairIPSt18_Rb_tree_node_baseS1_EC2ERKS1_S4_:
.LFB1515:
	.cfi_startproc
	pushq	%rbp
	.cfi_def_cfa_offset 16
	.cfi_offset 6, -16
	movq	%rsp, %rbp
	.cfi_def_cfa_register 6
	movq	%rdi, -8(%rbp)
	movq	%rsi, -16(%rbp)
	movq	%rdx, -24(%rbp)
	movq	-16(%rbp), %rax
	movq	(%rax), %rdx
	movq	-8(%rbp), %rax
	movq	%rdx, (%rax)
	movq	-24(%rbp), %rax
	movq	(%rax), %rdx
	movq	-8(%rbp), %rax
	movq	%rdx, 8(%rax)
	nop
	popq	%rbp
	.cfi_def_cfa 7, 8
	ret
	.cfi_endproc
.LFE1515:
	.size	_ZNSt4pairIPSt18_Rb_tree_node_baseS1_EC2ERKS1_S4_, .-_ZNSt4pairIPSt18_Rb_tree_node_baseS1_EC2ERKS1_S4_
	.weak	_ZNSt4pairIPSt18_Rb_tree_node_baseS1_EC1ERKS1_S4_
	.set	_ZNSt4pairIPSt18_Rb_tree_node_baseS1_EC1ERKS1_S4_,_ZNSt4pairIPSt18_Rb_tree_node_baseS1_EC2ERKS1_S4_
	.section	.text._ZNSt17_Rb_tree_iteratorIiEmmEv,"axG",@progbits,_ZNSt17_Rb_tree_iteratorIiEmmEv,comdat
	.align 2
	.weak	_ZNSt17_Rb_tree_iteratorIiEmmEv
	.type	_ZNSt17_Rb_tree_iteratorIiEmmEv, @function
_ZNSt17_Rb_tree_iteratorIiEmmEv:
.LFB1517:
	.cfi_startproc
	pushq	%rbp
	.cfi_def_cfa_offset 16
	.cfi_offset 6, -16
	movq	%rsp, %rbp
	.cfi_def_cfa_register 6
	subq	$16, %rsp
	movq	%rdi, -8(%rbp)
	movq	-8(%rbp), %rax
	movq	(%rax), %rax
	movq	%rax, %rdi
	call	_ZSt18_Rb_tree_decrementPSt18_Rb_tree_node_base
	movq	%rax, %rdx
	movq	-8(%rbp), %rax
	movq	%rdx, (%rax)
	movq	-8(%rbp), %rax
	leave
	.cfi_def_cfa 7, 8
	ret
	.cfi_endproc
.LFE1517:
	.size	_ZNSt17_Rb_tree_iteratorIiEmmEv, .-_ZNSt17_Rb_tree_iteratorIiEmmEv
	.section	.text._ZNKSt8_Rb_treeIiiSt9_IdentityIiESt4lessIiESaIiEE11_Alloc_nodeclIiEEPSt13_Rb_tree_nodeIiERKT_,"axG",@progbits,_ZNKSt8_Rb_treeIiiSt9_IdentityIiESt4lessIiESaIiEE11_Alloc_nodeclIiEEPSt13_Rb_tree_nodeIiERKT_,comdat
	.align 2
	.weak	_ZNKSt8_Rb_treeIiiSt9_IdentityIiESt4lessIiESaIiEE11_Alloc_nodeclIiEEPSt13_Rb_tree_nodeIiERKT_
	.type	_ZNKSt8_Rb_treeIiiSt9_IdentityIiESt4lessIiESaIiEE11_Alloc_nodeclIiEEPSt13_Rb_tree_nodeIiERKT_, @function
_ZNKSt8_Rb_treeIiiSt9_IdentityIiESt4lessIiESaIiEE11_Alloc_nodeclIiEEPSt13_Rb_tree_nodeIiERKT_:
.LFB1518:
	.cfi_startproc
	pushq	%rbp
	.cfi_def_cfa_offset 16
	.cfi_offset 6, -16
	movq	%rsp, %rbp
	.cfi_def_cfa_register 6
	subq	$16, %rsp
	movq	%rdi, -8(%rbp)
	movq	%rsi, -16(%rbp)
	movq	-8(%rbp), %rax
	movq	(%rax), %rax
	movq	-16(%rbp), %rdx
	movq	%rdx, %rsi
	movq	%rax, %rdi
	call	_ZNSt8_Rb_treeIiiSt9_IdentityIiESt4lessIiESaIiEE14_M_create_nodeERKi
	leave
	.cfi_def_cfa 7, 8
	ret
	.cfi_endproc
.LFE1518:
	.size	_ZNKSt8_Rb_treeIiiSt9_IdentityIiESt4lessIiESaIiEE11_Alloc_nodeclIiEEPSt13_Rb_tree_nodeIiERKT_, .-_ZNKSt8_Rb_treeIiiSt9_IdentityIiESt4lessIiESaIiEE11_Alloc_nodeclIiEEPSt13_Rb_tree_nodeIiERKT_
	.section	.text._ZSt14__partial_sortIPiN9__gnu_cxx5__ops15_Iter_less_iterEEvT_S4_S4_T0_,"axG",@progbits,_ZSt14__partial_sortIPiN9__gnu_cxx5__ops15_Iter_less_iterEEvT_S4_S4_T0_,comdat
	.weak	_ZSt14__partial_sortIPiN9__gnu_cxx5__ops15_Iter_less_iterEEvT_S4_S4_T0_
	.type	_ZSt14__partial_sortIPiN9__gnu_cxx5__ops15_Iter_less_iterEEvT_S4_S4_T0_, @function
_ZSt14__partial_sortIPiN9__gnu_cxx5__ops15_Iter_less_iterEEvT_S4_S4_T0_:
.LFB1519:
	.cfi_startproc
	pushq	%rbp
	.cfi_def_cfa_offset 16
	.cfi_offset 6, -16
	movq	%rsp, %rbp
	.cfi_def_cfa_register 6
	pushq	%rbx
	subq	$40, %rsp
	.cfi_offset 3, -24
	movq	%rdi, -24(%rbp)
	movq	%rsi, -32(%rbp)
	movq	%rdx, -40(%rbp)
	movq	-40(%rbp), %rdx
	movq	-32(%rbp), %rcx
	movq	-24(%rbp), %rax
	subq	$8, %rsp
	pushq	%r8
	movq	%rcx, %rsi
	movq	%rax, %rdi
	call	_ZSt13__heap_selectIPiN9__gnu_cxx5__ops15_Iter_less_iterEEvT_S4_S4_T0_
	addq	$16, %rsp
	movq	-32(%rbp), %rdx
	movq	-24(%rbp), %rax
	subq	$8, %rsp
	pushq	%rbx
	movq	%rdx, %rsi
	movq	%rax, %rdi
	call	_ZSt11__sort_heapIPiN9__gnu_cxx5__ops15_Iter_less_iterEEvT_S4_T0_
	addq	$16, %rsp
	nop
	movq	-8(%rbp), %rbx
	leave
	.cfi_def_cfa 7, 8
	ret
	.cfi_endproc
.LFE1519:
	.size	_ZSt14__partial_sortIPiN9__gnu_cxx5__ops15_Iter_less_iterEEvT_S4_S4_T0_, .-_ZSt14__partial_sortIPiN9__gnu_cxx5__ops15_Iter_less_iterEEvT_S4_S4_T0_
	.section	.text._ZSt27__unguarded_partition_pivotIPiN9__gnu_cxx5__ops15_Iter_less_iterEET_S4_S4_T0_,"axG",@progbits,_ZSt27__unguarded_partition_pivotIPiN9__gnu_cxx5__ops15_Iter_less_iterEET_S4_S4_T0_,comdat
	.weak	_ZSt27__unguarded_partition_pivotIPiN9__gnu_cxx5__ops15_Iter_less_iterEET_S4_S4_T0_
	.type	_ZSt27__unguarded_partition_pivotIPiN9__gnu_cxx5__ops15_Iter_less_iterEET_S4_S4_T0_, @function
_ZSt27__unguarded_partition_pivotIPiN9__gnu_cxx5__ops15_Iter_less_iterEET_S4_S4_T0_:
.LFB1520:
	.cfi_startproc
	pushq	%rbp
	.cfi_def_cfa_offset 16
	.cfi_offset 6, -16
	movq	%rsp, %rbp
	.cfi_def_cfa_register 6
	pushq	%rbx
	subq	$40, %rsp
	.cfi_offset 3, -24
	movq	%rdi, -40(%rbp)
	movq	%rsi, -48(%rbp)
	movq	-48(%rbp), %rdx
	movq	-40(%rbp), %rax
	subq	%rax, %rdx
	movq	%rdx, %rax
	sarq	$2, %rax
	movq	%rax, %rdx
	shrq	$63, %rdx
	addq	%rdx, %rax
	sarq	%rax
	leaq	0(,%rax,4), %rdx
	movq	-40(%rbp), %rax
	addq	%rdx, %rax
	movq	%rax, -24(%rbp)
	movq	-48(%rbp), %rax
	leaq	-4(%rax), %rcx
	movq	-40(%rbp), %rax
	leaq	4(%rax), %rsi
	movq	-24(%rbp), %rdx
	movq	-40(%rbp), %rax
	subq	$8, %rsp
	pushq	%r8
	movq	%rax, %rdi
	call	_ZSt22__move_median_to_firstIPiN9__gnu_cxx5__ops15_Iter_less_iterEEvT_S4_S4_S4_T0_
	addq	$16, %rsp
	movq	-40(%rbp), %rax
	leaq	4(%rax), %rcx
	movq	-40(%rbp), %rdx
	movq	-48(%rbp), %rax
	subq	$8, %rsp
	pushq	%rbx
	movq	%rax, %rsi
	movq	%rcx, %rdi
	call	_ZSt21__unguarded_partitionIPiN9__gnu_cxx5__ops15_Iter_less_iterEET_S4_S4_S4_T0_
	addq	$16, %rsp
	movq	-8(%rbp), %rbx
	leave
	.cfi_def_cfa 7, 8
	ret
	.cfi_endproc
.LFE1520:
	.size	_ZSt27__unguarded_partition_pivotIPiN9__gnu_cxx5__ops15_Iter_less_iterEET_S4_S4_T0_, .-_ZSt27__unguarded_partition_pivotIPiN9__gnu_cxx5__ops15_Iter_less_iterEET_S4_S4_T0_
	.section	.text._ZSt16__insertion_sortIPiN9__gnu_cxx5__ops15_Iter_less_iterEEvT_S4_T0_,"axG",@progbits,_ZSt16__insertion_sortIPiN9__gnu_cxx5__ops15_Iter_less_iterEEvT_S4_T0_,comdat
	.weak	_ZSt16__insertion_sortIPiN9__gnu_cxx5__ops15_Iter_less_iterEEvT_S4_T0_
	.type	_ZSt16__insertion_sortIPiN9__gnu_cxx5__ops15_Iter_less_iterEEvT_S4_T0_, @function
_ZSt16__insertion_sortIPiN9__gnu_cxx5__ops15_Iter_less_iterEEvT_S4_T0_:
.LFB1521:
	.cfi_startproc
	pushq	%rbp
	.cfi_def_cfa_offset 16
	.cfi_offset 6, -16
	movq	%rsp, %rbp
	.cfi_def_cfa_register 6
	pushq	%r12
	pushq	%rbx
	subq	$48, %rsp
	.cfi_offset 12, -24
	.cfi_offset 3, -32
	movq	%rdi, -56(%rbp)
	movq	%rsi, -64(%rbp)
	movq	%fs:40, %rax
	movq	%rax, -24(%rbp)
	xorl	%eax, %eax
	movq	-56(%rbp), %rax
	cmpq	-64(%rbp), %rax
	je	.L211
	movq	-56(%rbp), %rax
	addq	$4, %rax
	movq	%rax, -32(%rbp)
.L209:
	movq	-32(%rbp), %rax
	cmpq	-64(%rbp), %rax
	je	.L204
	movq	-56(%rbp), %rdx
	movq	-32(%rbp), %rax
	movq	%rax, %rsi
	leaq	16(%rbp), %rdi
	call	_ZNK9__gnu_cxx5__ops15_Iter_less_iterclIPiS3_EEbT_T0_
	testb	%al, %al
	je	.L207
	movq	-32(%rbp), %rax
	movl	(%rax), %eax
	movl	%eax, -36(%rbp)
	movq	-32(%rbp), %rax
	leaq	4(%rax), %rdx
	movq	-32(%rbp), %rcx
	movq	-56(%rbp), %rax
	movq	%rcx, %rsi
	movq	%rax, %rdi
	call	_ZSt13copy_backwardIPiS0_ET0_T_S2_S1_
	movq	-56(%rbp), %rax
	movl	-36(%rbp), %edx
	movl	%edx, (%rax)
	jmp	.L208
.L207:
	subq	$8, %rsp
	pushq	%r12
	call	_ZN9__gnu_cxx5__ops15__val_comp_iterENS0_15_Iter_less_iterE
	addq	$16, %rsp
	movq	-32(%rbp), %rax
	subq	$8, %rsp
	pushq	%rbx
	movq	%rax, %rdi
	call	_ZSt25__unguarded_linear_insertIPiN9__gnu_cxx5__ops14_Val_less_iterEEvT_T0_
	addq	$16, %rsp
.L208:
	addq	$4, -32(%rbp)
	jmp	.L209
.L211:
	nop
.L204:
	movq	-24(%rbp), %rax
	xorq	%fs:40, %rax
	je	.L210
	call	__stack_chk_fail
.L210:
	leaq	-16(%rbp), %rsp
	popq	%rbx
	popq	%r12
	popq	%rbp
	.cfi_def_cfa 7, 8
	ret
	.cfi_endproc
.LFE1521:
	.size	_ZSt16__insertion_sortIPiN9__gnu_cxx5__ops15_Iter_less_iterEEvT_S4_T0_, .-_ZSt16__insertion_sortIPiN9__gnu_cxx5__ops15_Iter_less_iterEEvT_S4_T0_
	.section	.text._ZSt26__unguarded_insertion_sortIPiN9__gnu_cxx5__ops15_Iter_less_iterEEvT_S4_T0_,"axG",@progbits,_ZSt26__unguarded_insertion_sortIPiN9__gnu_cxx5__ops15_Iter_less_iterEEvT_S4_T0_,comdat
	.weak	_ZSt26__unguarded_insertion_sortIPiN9__gnu_cxx5__ops15_Iter_less_iterEEvT_S4_T0_
	.type	_ZSt26__unguarded_insertion_sortIPiN9__gnu_cxx5__ops15_Iter_less_iterEEvT_S4_T0_, @function
_ZSt26__unguarded_insertion_sortIPiN9__gnu_cxx5__ops15_Iter_less_iterEEvT_S4_T0_:
.LFB1522:
	.cfi_startproc
	pushq	%rbp
	.cfi_def_cfa_offset 16
	.cfi_offset 6, -16
	movq	%rsp, %rbp
	.cfi_def_cfa_register 6
	pushq	%r12
	pushq	%rbx
	subq	$48, %rsp
	.cfi_offset 12, -24
	.cfi_offset 3, -32
	movq	%rdi, -56(%rbp)
	movq	%rsi, -64(%rbp)
	movq	%fs:40, %rax
	movq	%rax, -24(%rbp)
	xorl	%eax, %eax
	movq	-56(%rbp), %rax
	movq	%rax, -32(%rbp)
.L214:
	movq	-32(%rbp), %rax
	cmpq	-64(%rbp), %rax
	je	.L216
	subq	$8, %rsp
	pushq	%r12
	call	_ZN9__gnu_cxx5__ops15__val_comp_iterENS0_15_Iter_less_iterE
	addq	$16, %rsp
	movq	-32(%rbp), %rax
	subq	$8, %rsp
	pushq	%rbx
	movq	%rax, %rdi
	call	_ZSt25__unguarded_linear_insertIPiN9__gnu_cxx5__ops14_Val_less_iterEEvT_T0_
	addq	$16, %rsp
	addq	$4, -32(%rbp)
	jmp	.L214
.L216:
	nop
	movq	-24(%rbp), %rax
	xorq	%fs:40, %rax
	je	.L215
	call	__stack_chk_fail
.L215:
	leaq	-16(%rbp), %rsp
	popq	%rbx
	popq	%r12
	popq	%rbp
	.cfi_def_cfa 7, 8
	ret
	.cfi_endproc
.LFE1522:
	.size	_ZSt26__unguarded_insertion_sortIPiN9__gnu_cxx5__ops15_Iter_less_iterEEvT_S4_T0_, .-_ZSt26__unguarded_insertion_sortIPiN9__gnu_cxx5__ops15_Iter_less_iterEEvT_S4_T0_
	.section	.text._ZSt19__iterator_categoryIPiENSt15iterator_traitsIT_E17iterator_categoryERKS2_,"axG",@progbits,_ZSt19__iterator_categoryIPiENSt15iterator_traitsIT_E17iterator_categoryERKS2_,comdat
	.weak	_ZSt19__iterator_categoryIPiENSt15iterator_traitsIT_E17iterator_categoryERKS2_
	.type	_ZSt19__iterator_categoryIPiENSt15iterator_traitsIT_E17iterator_categoryERKS2_, @function
_ZSt19__iterator_categoryIPiENSt15iterator_traitsIT_E17iterator_categoryERKS2_:
.LFB1523:
	.cfi_startproc
	pushq	%rbp
	.cfi_def_cfa_offset 16
	.cfi_offset 6, -16
	movq	%rsp, %rbp
	.cfi_def_cfa_register 6
	movq	%rdi, -8(%rbp)
	popq	%rbp
	.cfi_def_cfa 7, 8
	ret
	.cfi_endproc
.LFE1523:
	.size	_ZSt19__iterator_categoryIPiENSt15iterator_traitsIT_E17iterator_categoryERKS2_, .-_ZSt19__iterator_categoryIPiENSt15iterator_traitsIT_E17iterator_categoryERKS2_
	.section	.text._ZSt10__distanceIPiENSt15iterator_traitsIT_E15difference_typeES2_S2_St26random_access_iterator_tag,"axG",@progbits,_ZSt10__distanceIPiENSt15iterator_traitsIT_E15difference_typeES2_S2_St26random_access_iterator_tag,comdat
	.weak	_ZSt10__distanceIPiENSt15iterator_traitsIT_E15difference_typeES2_S2_St26random_access_iterator_tag
	.type	_ZSt10__distanceIPiENSt15iterator_traitsIT_E15difference_typeES2_S2_St26random_access_iterator_tag, @function
_ZSt10__distanceIPiENSt15iterator_traitsIT_E15difference_typeES2_S2_St26random_access_iterator_tag:
.LFB1524:
	.cfi_startproc
	pushq	%rbp
	.cfi_def_cfa_offset 16
	.cfi_offset 6, -16
	movq	%rsp, %rbp
	.cfi_def_cfa_register 6
	movq	%rdi, -8(%rbp)
	movq	%rsi, -16(%rbp)
	movq	-16(%rbp), %rdx
	movq	-8(%rbp), %rax
	subq	%rax, %rdx
	movq	%rdx, %rax
	sarq	$2, %rax
	popq	%rbp
	.cfi_def_cfa 7, 8
	ret
	.cfi_endproc
.LFE1524:
	.size	_ZSt10__distanceIPiENSt15iterator_traitsIT_E15difference_typeES2_S2_St26random_access_iterator_tag, .-_ZSt10__distanceIPiENSt15iterator_traitsIT_E15difference_typeES2_S2_St26random_access_iterator_tag
	.section	.text._ZSt9__advanceIPilEvRT_T0_St26random_access_iterator_tag,"axG",@progbits,_ZSt9__advanceIPilEvRT_T0_St26random_access_iterator_tag,comdat
	.weak	_ZSt9__advanceIPilEvRT_T0_St26random_access_iterator_tag
	.type	_ZSt9__advanceIPilEvRT_T0_St26random_access_iterator_tag, @function
_ZSt9__advanceIPilEvRT_T0_St26random_access_iterator_tag:
.LFB1525:
	.cfi_startproc
	pushq	%rbp
	.cfi_def_cfa_offset 16
	.cfi_offset 6, -16
	movq	%rsp, %rbp
	.cfi_def_cfa_register 6
	movq	%rdi, -8(%rbp)
	movq	%rsi, -16(%rbp)
	movq	-8(%rbp), %rax
	movq	(%rax), %rax
	movq	-16(%rbp), %rdx
	salq	$2, %rdx
	addq	%rax, %rdx
	movq	-8(%rbp), %rax
	movq	%rdx, (%rax)
	nop
	popq	%rbp
	.cfi_def_cfa 7, 8
	ret
	.cfi_endproc
.LFE1525:
	.size	_ZSt9__advanceIPilEvRT_T0_St26random_access_iterator_tag, .-_ZSt9__advanceIPilEvRT_T0_St26random_access_iterator_tag
	.section	.text._ZN9__gnu_cxx13new_allocatorISt13_Rb_tree_nodeIiEEC2Ev,"axG",@progbits,_ZN9__gnu_cxx13new_allocatorISt13_Rb_tree_nodeIiEEC5Ev,comdat
	.align 2
	.weak	_ZN9__gnu_cxx13new_allocatorISt13_Rb_tree_nodeIiEEC2Ev
	.type	_ZN9__gnu_cxx13new_allocatorISt13_Rb_tree_nodeIiEEC2Ev, @function
_ZN9__gnu_cxx13new_allocatorISt13_Rb_tree_nodeIiEEC2Ev:
.LFB1527:
	.cfi_startproc
	pushq	%rbp
	.cfi_def_cfa_offset 16
	.cfi_offset 6, -16
	movq	%rsp, %rbp
	.cfi_def_cfa_register 6
	movq	%rdi, -8(%rbp)
	nop
	popq	%rbp
	.cfi_def_cfa 7, 8
	ret
	.cfi_endproc
.LFE1527:
	.size	_ZN9__gnu_cxx13new_allocatorISt13_Rb_tree_nodeIiEEC2Ev, .-_ZN9__gnu_cxx13new_allocatorISt13_Rb_tree_nodeIiEEC2Ev
	.weak	_ZN9__gnu_cxx13new_allocatorISt13_Rb_tree_nodeIiEEC1Ev
	.set	_ZN9__gnu_cxx13new_allocatorISt13_Rb_tree_nodeIiEEC1Ev,_ZN9__gnu_cxx13new_allocatorISt13_Rb_tree_nodeIiEEC2Ev
	.section	.text._ZNSt8_Rb_treeIiiSt9_IdentityIiESt4lessIiESaIiEE15_M_destroy_nodeEPSt13_Rb_tree_nodeIiE,"axG",@progbits,_ZNSt8_Rb_treeIiiSt9_IdentityIiESt4lessIiESaIiEE15_M_destroy_nodeEPSt13_Rb_tree_nodeIiE,comdat
	.align 2
	.weak	_ZNSt8_Rb_treeIiiSt9_IdentityIiESt4lessIiESaIiEE15_M_destroy_nodeEPSt13_Rb_tree_nodeIiE
	.type	_ZNSt8_Rb_treeIiiSt9_IdentityIiESt4lessIiESaIiEE15_M_destroy_nodeEPSt13_Rb_tree_nodeIiE, @function
_ZNSt8_Rb_treeIiiSt9_IdentityIiESt4lessIiESaIiEE15_M_destroy_nodeEPSt13_Rb_tree_nodeIiE:
.LFB1529:
	.cfi_startproc
	pushq	%rbp
	.cfi_def_cfa_offset 16
	.cfi_offset 6, -16
	movq	%rsp, %rbp
	.cfi_def_cfa_register 6
	pushq	%rbx
	subq	$40, %rsp
	.cfi_offset 3, -24
	movq	%rdi, -40(%rbp)
	movq	%rsi, -48(%rbp)
	movq	%fs:40, %rax
	movq	%rax, -24(%rbp)
	xorl	%eax, %eax
	movq	-48(%rbp), %rax
	movq	%rax, %rdi
	call	_ZNSt13_Rb_tree_nodeIiE9_M_valptrEv
	movq	%rax, %rbx
	leaq	-25(%rbp), %rax
	movq	-40(%rbp), %rdx
	movq	%rdx, %rsi
	movq	%rax, %rdi
	call	_ZNKSt8_Rb_treeIiiSt9_IdentityIiESt4lessIiESaIiEE13get_allocatorEv
	leaq	-25(%rbp), %rax
	movq	%rbx, %rsi
	movq	%rax, %rdi
	call	_ZN9__gnu_cxx13new_allocatorIiE7destroyEPi
	leaq	-25(%rbp), %rax
	movq	%rax, %rdi
	call	_ZNSaIiED1Ev
	nop
	movq	-24(%rbp), %rax
	xorq	%fs:40, %rax
	je	.L224
	call	__stack_chk_fail
.L224:
	addq	$40, %rsp
	popq	%rbx
	popq	%rbp
	.cfi_def_cfa 7, 8
	ret
	.cfi_endproc
.LFE1529:
	.size	_ZNSt8_Rb_treeIiiSt9_IdentityIiESt4lessIiESaIiEE15_M_destroy_nodeEPSt13_Rb_tree_nodeIiE, .-_ZNSt8_Rb_treeIiiSt9_IdentityIiESt4lessIiESaIiEE15_M_destroy_nodeEPSt13_Rb_tree_nodeIiE
	.section	.text._ZNSt8_Rb_treeIiiSt9_IdentityIiESt4lessIiESaIiEE11_M_put_nodeEPSt13_Rb_tree_nodeIiE,"axG",@progbits,_ZNSt8_Rb_treeIiiSt9_IdentityIiESt4lessIiESaIiEE11_M_put_nodeEPSt13_Rb_tree_nodeIiE,comdat
	.align 2
	.weak	_ZNSt8_Rb_treeIiiSt9_IdentityIiESt4lessIiESaIiEE11_M_put_nodeEPSt13_Rb_tree_nodeIiE
	.type	_ZNSt8_Rb_treeIiiSt9_IdentityIiESt4lessIiESaIiEE11_M_put_nodeEPSt13_Rb_tree_nodeIiE, @function
_ZNSt8_Rb_treeIiiSt9_IdentityIiESt4lessIiESaIiEE11_M_put_nodeEPSt13_Rb_tree_nodeIiE:
.LFB1530:
	.cfi_startproc
	pushq	%rbp
	.cfi_def_cfa_offset 16
	.cfi_offset 6, -16
	movq	%rsp, %rbp
	.cfi_def_cfa_register 6
	subq	$16, %rsp
	movq	%rdi, -8(%rbp)
	movq	%rsi, -16(%rbp)
	movq	-8(%rbp), %rax
	movq	%rax, %rdi
	call	_ZNSt8_Rb_treeIiiSt9_IdentityIiESt4lessIiESaIiEE21_M_get_Node_allocatorEv
	movq	%rax, %rcx
	movq	-16(%rbp), %rax
	movl	$1, %edx
	movq	%rax, %rsi
	movq	%rcx, %rdi
	call	_ZN9__gnu_cxx14__alloc_traitsISaISt13_Rb_tree_nodeIiEEE10deallocateERS3_PS2_m
	nop
	leave
	.cfi_def_cfa 7, 8
	ret
	.cfi_endproc
.LFE1530:
	.size	_ZNSt8_Rb_treeIiiSt9_IdentityIiESt4lessIiESaIiEE11_M_put_nodeEPSt13_Rb_tree_nodeIiE, .-_ZNSt8_Rb_treeIiiSt9_IdentityIiESt4lessIiESaIiEE11_M_put_nodeEPSt13_Rb_tree_nodeIiE
	.section	.text._ZNSt8_Rb_treeIiiSt9_IdentityIiESt4lessIiESaIiEE8_S_valueEPKSt13_Rb_tree_nodeIiE,"axG",@progbits,_ZNSt8_Rb_treeIiiSt9_IdentityIiESt4lessIiESaIiEE8_S_valueEPKSt13_Rb_tree_nodeIiE,comdat
	.weak	_ZNSt8_Rb_treeIiiSt9_IdentityIiESt4lessIiESaIiEE8_S_valueEPKSt13_Rb_tree_nodeIiE
	.type	_ZNSt8_Rb_treeIiiSt9_IdentityIiESt4lessIiESaIiEE8_S_valueEPKSt13_Rb_tree_nodeIiE, @function
_ZNSt8_Rb_treeIiiSt9_IdentityIiESt4lessIiESaIiEE8_S_valueEPKSt13_Rb_tree_nodeIiE:
.LFB1531:
	.cfi_startproc
	pushq	%rbp
	.cfi_def_cfa_offset 16
	.cfi_offset 6, -16
	movq	%rsp, %rbp
	.cfi_def_cfa_register 6
	subq	$16, %rsp
	movq	%rdi, -8(%rbp)
	movq	-8(%rbp), %rax
	movq	%rax, %rdi
	call	_ZNKSt13_Rb_tree_nodeIiE9_M_valptrEv
	leave
	.cfi_def_cfa 7, 8
	ret
	.cfi_endproc
.LFE1531:
	.size	_ZNSt8_Rb_treeIiiSt9_IdentityIiESt4lessIiESaIiEE8_S_valueEPKSt13_Rb_tree_nodeIiE, .-_ZNSt8_Rb_treeIiiSt9_IdentityIiESt4lessIiESaIiEE8_S_valueEPKSt13_Rb_tree_nodeIiE
	.section	.text._ZNKSt13_Rb_tree_nodeIiE9_M_valptrEv,"axG",@progbits,_ZNKSt13_Rb_tree_nodeIiE9_M_valptrEv,comdat
	.align 2
	.weak	_ZNKSt13_Rb_tree_nodeIiE9_M_valptrEv
	.type	_ZNKSt13_Rb_tree_nodeIiE9_M_valptrEv, @function
_ZNKSt13_Rb_tree_nodeIiE9_M_valptrEv:
.LFB1532:
	.cfi_startproc
	pushq	%rbp
	.cfi_def_cfa_offset 16
	.cfi_offset 6, -16
	movq	%rsp, %rbp
	.cfi_def_cfa_register 6
	subq	$16, %rsp
	movq	%rdi, -8(%rbp)
	movq	-8(%rbp), %rax
	addq	$32, %rax
	movq	%rax, %rdi
	call	_ZSt11__addressofIKiEPT_RS1_
	leave
	.cfi_def_cfa 7, 8
	ret
	.cfi_endproc
.LFE1532:
	.size	_ZNKSt13_Rb_tree_nodeIiE9_M_valptrEv, .-_ZNKSt13_Rb_tree_nodeIiE9_M_valptrEv
	.section	.text._ZNSt8_Rb_treeIiiSt9_IdentityIiESt4lessIiESaIiEE14_M_create_nodeERKi,"axG",@progbits,_ZNSt8_Rb_treeIiiSt9_IdentityIiESt4lessIiESaIiEE14_M_create_nodeERKi,comdat
	.align 2
	.weak	_ZNSt8_Rb_treeIiiSt9_IdentityIiESt4lessIiESaIiEE14_M_create_nodeERKi
	.type	_ZNSt8_Rb_treeIiiSt9_IdentityIiESt4lessIiESaIiEE14_M_create_nodeERKi, @function
_ZNSt8_Rb_treeIiiSt9_IdentityIiESt4lessIiESaIiEE14_M_create_nodeERKi:
.LFB1533:
	.cfi_startproc
	pushq	%rbp
	.cfi_def_cfa_offset 16
	.cfi_offset 6, -16
	movq	%rsp, %rbp
	.cfi_def_cfa_register 6
	subq	$32, %rsp
	movq	%rdi, -24(%rbp)
	movq	%rsi, -32(%rbp)
	movq	-24(%rbp), %rax
	movq	%rax, %rdi
	call	_ZNSt8_Rb_treeIiiSt9_IdentityIiESt4lessIiESaIiEE11_M_get_nodeEv
	movq	%rax, -8(%rbp)
	movq	-32(%rbp), %rdx
	movq	-8(%rbp), %rcx
	movq	-24(%rbp), %rax
	movq	%rcx, %rsi
	movq	%rax, %rdi
	call	_ZNSt8_Rb_treeIiiSt9_IdentityIiESt4lessIiESaIiEE17_M_construct_nodeEPSt13_Rb_tree_nodeIiERKi
	movq	-8(%rbp), %rax
	leave
	.cfi_def_cfa 7, 8
	ret
	.cfi_endproc
.LFE1533:
	.size	_ZNSt8_Rb_treeIiiSt9_IdentityIiESt4lessIiESaIiEE14_M_create_nodeERKi, .-_ZNSt8_Rb_treeIiiSt9_IdentityIiESt4lessIiESaIiEE14_M_create_nodeERKi
	.section	.text._ZSt13__heap_selectIPiN9__gnu_cxx5__ops15_Iter_less_iterEEvT_S4_S4_T0_,"axG",@progbits,_ZSt13__heap_selectIPiN9__gnu_cxx5__ops15_Iter_less_iterEEvT_S4_S4_T0_,comdat
	.weak	_ZSt13__heap_selectIPiN9__gnu_cxx5__ops15_Iter_less_iterEEvT_S4_S4_T0_
	.type	_ZSt13__heap_selectIPiN9__gnu_cxx5__ops15_Iter_less_iterEEvT_S4_S4_T0_, @function
_ZSt13__heap_selectIPiN9__gnu_cxx5__ops15_Iter_less_iterEEvT_S4_S4_T0_:
.LFB1534:
	.cfi_startproc
	pushq	%rbp
	.cfi_def_cfa_offset 16
	.cfi_offset 6, -16
	movq	%rsp, %rbp
	.cfi_def_cfa_register 6
	pushq	%rbx
	subq	$56, %rsp
	.cfi_offset 3, -24
	movq	%rdi, -40(%rbp)
	movq	%rsi, -48(%rbp)
	movq	%rdx, -56(%rbp)
	movq	-48(%rbp), %rdx
	movq	-40(%rbp), %rax
	subq	$8, %rsp
	pushq	%rcx
	movq	%rdx, %rsi
	movq	%rax, %rdi
	call	_ZSt11__make_heapIPiN9__gnu_cxx5__ops15_Iter_less_iterEEvT_S4_T0_
	addq	$16, %rsp
	movq	-48(%rbp), %rax
	movq	%rax, -24(%rbp)
.L235:
	movq	-24(%rbp), %rax
	cmpq	-56(%rbp), %rax
	jnb	.L236
	movq	-40(%rbp), %rdx
	movq	-24(%rbp), %rax
	movq	%rax, %rsi
	leaq	16(%rbp), %rdi
	call	_ZNK9__gnu_cxx5__ops15_Iter_less_iterclIPiS3_EEbT_T0_
	testb	%al, %al
	je	.L234
	movq	-24(%rbp), %rdx
	movq	-48(%rbp), %rcx
	movq	-40(%rbp), %rax
	subq	$8, %rsp
	pushq	%rbx
	movq	%rcx, %rsi
	movq	%rax, %rdi
	call	_ZSt10__pop_heapIPiN9__gnu_cxx5__ops15_Iter_less_iterEEvT_S4_S4_T0_
	addq	$16, %rsp
.L234:
	addq	$4, -24(%rbp)
	jmp	.L235
.L236:
	nop
	movq	-8(%rbp), %rbx
	leave
	.cfi_def_cfa 7, 8
	ret
	.cfi_endproc
.LFE1534:
	.size	_ZSt13__heap_selectIPiN9__gnu_cxx5__ops15_Iter_less_iterEEvT_S4_S4_T0_, .-_ZSt13__heap_selectIPiN9__gnu_cxx5__ops15_Iter_less_iterEEvT_S4_S4_T0_
	.section	.text._ZSt11__sort_heapIPiN9__gnu_cxx5__ops15_Iter_less_iterEEvT_S4_T0_,"axG",@progbits,_ZSt11__sort_heapIPiN9__gnu_cxx5__ops15_Iter_less_iterEEvT_S4_T0_,comdat
	.weak	_ZSt11__sort_heapIPiN9__gnu_cxx5__ops15_Iter_less_iterEEvT_S4_T0_
	.type	_ZSt11__sort_heapIPiN9__gnu_cxx5__ops15_Iter_less_iterEEvT_S4_T0_, @function
_ZSt11__sort_heapIPiN9__gnu_cxx5__ops15_Iter_less_iterEEvT_S4_T0_:
.LFB1535:
	.cfi_startproc
	pushq	%rbp
	.cfi_def_cfa_offset 16
	.cfi_offset 6, -16
	movq	%rsp, %rbp
	.cfi_def_cfa_register 6
	pushq	%rbx
	subq	$24, %rsp
	.cfi_offset 3, -24
	movq	%rdi, -24(%rbp)
	movq	%rsi, -32(%rbp)
.L239:
	movq	-32(%rbp), %rdx
	movq	-24(%rbp), %rax
	subq	%rax, %rdx
	movq	%rdx, %rax
	cmpq	$7, %rax
	jle	.L240
	subq	$4, -32(%rbp)
	movq	-32(%rbp), %rdx
	movq	-32(%rbp), %rcx
	movq	-24(%rbp), %rax
	subq	$8, %rsp
	pushq	%rbx
	movq	%rcx, %rsi
	movq	%rax, %rdi
	call	_ZSt10__pop_heapIPiN9__gnu_cxx5__ops15_Iter_less_iterEEvT_S4_S4_T0_
	addq	$16, %rsp
	jmp	.L239
.L240:
	nop
	movq	-8(%rbp), %rbx
	leave
	.cfi_def_cfa 7, 8
	ret
	.cfi_endproc
.LFE1535:
	.size	_ZSt11__sort_heapIPiN9__gnu_cxx5__ops15_Iter_less_iterEEvT_S4_T0_, .-_ZSt11__sort_heapIPiN9__gnu_cxx5__ops15_Iter_less_iterEEvT_S4_T0_
	.section	.text._ZSt22__move_median_to_firstIPiN9__gnu_cxx5__ops15_Iter_less_iterEEvT_S4_S4_S4_T0_,"axG",@progbits,_ZSt22__move_median_to_firstIPiN9__gnu_cxx5__ops15_Iter_less_iterEEvT_S4_S4_S4_T0_,comdat
	.weak	_ZSt22__move_median_to_firstIPiN9__gnu_cxx5__ops15_Iter_less_iterEEvT_S4_S4_S4_T0_
	.type	_ZSt22__move_median_to_firstIPiN9__gnu_cxx5__ops15_Iter_less_iterEEvT_S4_S4_S4_T0_, @function
_ZSt22__move_median_to_firstIPiN9__gnu_cxx5__ops15_Iter_less_iterEEvT_S4_S4_S4_T0_:
.LFB1536:
	.cfi_startproc
	pushq	%rbp
	.cfi_def_cfa_offset 16
	.cfi_offset 6, -16
	movq	%rsp, %rbp
	.cfi_def_cfa_register 6
	subq	$32, %rsp
	movq	%rdi, -8(%rbp)
	movq	%rsi, -16(%rbp)
	movq	%rdx, -24(%rbp)
	movq	%rcx, -32(%rbp)
	movq	-24(%rbp), %rdx
	movq	-16(%rbp), %rax
	movq	%rax, %rsi
	leaq	16(%rbp), %rdi
	call	_ZNK9__gnu_cxx5__ops15_Iter_less_iterclIPiS3_EEbT_T0_
	testb	%al, %al
	je	.L242
	movq	-32(%rbp), %rdx
	movq	-24(%rbp), %rax
	movq	%rax, %rsi
	leaq	16(%rbp), %rdi
	call	_ZNK9__gnu_cxx5__ops15_Iter_less_iterclIPiS3_EEbT_T0_
	testb	%al, %al
	je	.L243
	movq	-24(%rbp), %rdx
	movq	-8(%rbp), %rax
	movq	%rdx, %rsi
	movq	%rax, %rdi
	call	_ZSt9iter_swapIPiS0_EvT_T0_
	jmp	.L249
.L243:
	movq	-32(%rbp), %rdx
	movq	-16(%rbp), %rax
	movq	%rax, %rsi
	leaq	16(%rbp), %rdi
	call	_ZNK9__gnu_cxx5__ops15_Iter_less_iterclIPiS3_EEbT_T0_
	testb	%al, %al
	je	.L245
	movq	-32(%rbp), %rdx
	movq	-8(%rbp), %rax
	movq	%rdx, %rsi
	movq	%rax, %rdi
	call	_ZSt9iter_swapIPiS0_EvT_T0_
	jmp	.L249
.L245:
	movq	-16(%rbp), %rdx
	movq	-8(%rbp), %rax
	movq	%rdx, %rsi
	movq	%rax, %rdi
	call	_ZSt9iter_swapIPiS0_EvT_T0_
	jmp	.L249
.L242:
	movq	-32(%rbp), %rdx
	movq	-16(%rbp), %rax
	movq	%rax, %rsi
	leaq	16(%rbp), %rdi
	call	_ZNK9__gnu_cxx5__ops15_Iter_less_iterclIPiS3_EEbT_T0_
	testb	%al, %al
	je	.L247
	movq	-16(%rbp), %rdx
	movq	-8(%rbp), %rax
	movq	%rdx, %rsi
	movq	%rax, %rdi
	call	_ZSt9iter_swapIPiS0_EvT_T0_
	jmp	.L249
.L247:
	movq	-32(%rbp), %rdx
	movq	-24(%rbp), %rax
	movq	%rax, %rsi
	leaq	16(%rbp), %rdi
	call	_ZNK9__gnu_cxx5__ops15_Iter_less_iterclIPiS3_EEbT_T0_
	testb	%al, %al
	je	.L248
	movq	-32(%rbp), %rdx
	movq	-8(%rbp), %rax
	movq	%rdx, %rsi
	movq	%rax, %rdi
	call	_ZSt9iter_swapIPiS0_EvT_T0_
	jmp	.L249
.L248:
	movq	-24(%rbp), %rdx
	movq	-8(%rbp), %rax
	movq	%rdx, %rsi
	movq	%rax, %rdi
	call	_ZSt9iter_swapIPiS0_EvT_T0_
.L249:
	nop
	leave
	.cfi_def_cfa 7, 8
	ret
	.cfi_endproc
.LFE1536:
	.size	_ZSt22__move_median_to_firstIPiN9__gnu_cxx5__ops15_Iter_less_iterEEvT_S4_S4_S4_T0_, .-_ZSt22__move_median_to_firstIPiN9__gnu_cxx5__ops15_Iter_less_iterEEvT_S4_S4_S4_T0_
	.section	.text._ZSt21__unguarded_partitionIPiN9__gnu_cxx5__ops15_Iter_less_iterEET_S4_S4_S4_T0_,"axG",@progbits,_ZSt21__unguarded_partitionIPiN9__gnu_cxx5__ops15_Iter_less_iterEET_S4_S4_S4_T0_,comdat
	.weak	_ZSt21__unguarded_partitionIPiN9__gnu_cxx5__ops15_Iter_less_iterEET_S4_S4_S4_T0_
	.type	_ZSt21__unguarded_partitionIPiN9__gnu_cxx5__ops15_Iter_less_iterEET_S4_S4_S4_T0_, @function
_ZSt21__unguarded_partitionIPiN9__gnu_cxx5__ops15_Iter_less_iterEET_S4_S4_S4_T0_:
.LFB1537:
	.cfi_startproc
	pushq	%rbp
	.cfi_def_cfa_offset 16
	.cfi_offset 6, -16
	movq	%rsp, %rbp
	.cfi_def_cfa_register 6
	subq	$32, %rsp
	movq	%rdi, -8(%rbp)
	movq	%rsi, -16(%rbp)
	movq	%rdx, -24(%rbp)
.L252:
	movq	-24(%rbp), %rdx
	movq	-8(%rbp), %rax
	movq	%rax, %rsi
	leaq	16(%rbp), %rdi
	call	_ZNK9__gnu_cxx5__ops15_Iter_less_iterclIPiS3_EEbT_T0_
	testb	%al, %al
	je	.L251
	addq	$4, -8(%rbp)
	jmp	.L252
.L251:
	subq	$4, -16(%rbp)
.L254:
	movq	-16(%rbp), %rdx
	movq	-24(%rbp), %rax
	movq	%rax, %rsi
	leaq	16(%rbp), %rdi
	call	_ZNK9__gnu_cxx5__ops15_Iter_less_iterclIPiS3_EEbT_T0_
	testb	%al, %al
	je	.L253
	subq	$4, -16(%rbp)
	jmp	.L254
.L253:
	movq	-8(%rbp), %rax
	cmpq	-16(%rbp), %rax
	jb	.L255
	movq	-8(%rbp), %rax
	jmp	.L257
.L255:
	movq	-16(%rbp), %rdx
	movq	-8(%rbp), %rax
	movq	%rdx, %rsi
	movq	%rax, %rdi
	call	_ZSt9iter_swapIPiS0_EvT_T0_
	addq	$4, -8(%rbp)
	jmp	.L252
.L257:
	leave
	.cfi_def_cfa 7, 8
	ret
	.cfi_endproc
.LFE1537:
	.size	_ZSt21__unguarded_partitionIPiN9__gnu_cxx5__ops15_Iter_less_iterEET_S4_S4_S4_T0_, .-_ZSt21__unguarded_partitionIPiN9__gnu_cxx5__ops15_Iter_less_iterEET_S4_S4_S4_T0_
	.section	.text._ZNK9__gnu_cxx5__ops15_Iter_less_iterclIPiS3_EEbT_T0_,"axG",@progbits,_ZNK9__gnu_cxx5__ops15_Iter_less_iterclIPiS3_EEbT_T0_,comdat
	.align 2
	.weak	_ZNK9__gnu_cxx5__ops15_Iter_less_iterclIPiS3_EEbT_T0_
	.type	_ZNK9__gnu_cxx5__ops15_Iter_less_iterclIPiS3_EEbT_T0_, @function
_ZNK9__gnu_cxx5__ops15_Iter_less_iterclIPiS3_EEbT_T0_:
.LFB1538:
	.cfi_startproc
	pushq	%rbp
	.cfi_def_cfa_offset 16
	.cfi_offset 6, -16
	movq	%rsp, %rbp
	.cfi_def_cfa_register 6
	movq	%rdi, -8(%rbp)
	movq	%rsi, -16(%rbp)
	movq	%rdx, -24(%rbp)
	movq	-16(%rbp), %rax
	movl	(%rax), %edx
	movq	-24(%rbp), %rax
	movl	(%rax), %eax
	cmpl	%eax, %edx
	setl	%al
	popq	%rbp
	.cfi_def_cfa 7, 8
	ret
	.cfi_endproc
.LFE1538:
	.size	_ZNK9__gnu_cxx5__ops15_Iter_less_iterclIPiS3_EEbT_T0_, .-_ZNK9__gnu_cxx5__ops15_Iter_less_iterclIPiS3_EEbT_T0_
	.section	.text._ZSt13copy_backwardIPiS0_ET0_T_S2_S1_,"axG",@progbits,_ZSt13copy_backwardIPiS0_ET0_T_S2_S1_,comdat
	.weak	_ZSt13copy_backwardIPiS0_ET0_T_S2_S1_
	.type	_ZSt13copy_backwardIPiS0_ET0_T_S2_S1_, @function
_ZSt13copy_backwardIPiS0_ET0_T_S2_S1_:
.LFB1539:
	.cfi_startproc
	pushq	%rbp
	.cfi_def_cfa_offset 16
	.cfi_offset 6, -16
	movq	%rsp, %rbp
	.cfi_def_cfa_register 6
	pushq	%rbx
	subq	$40, %rsp
	.cfi_offset 3, -24
	movq	%rdi, -24(%rbp)
	movq	%rsi, -32(%rbp)
	movq	%rdx, -40(%rbp)
	movq	-32(%rbp), %rax
	movq	%rax, %rdi
	call	_ZSt12__miter_baseIPiENSt11_Miter_baseIT_E13iterator_typeES2_
	movq	%rax, %rbx
	movq	-24(%rbp), %rax
	movq	%rax, %rdi
	call	_ZSt12__miter_baseIPiENSt11_Miter_baseIT_E13iterator_typeES2_
	movq	%rax, %rcx
	movq	-40(%rbp), %rax
	movq	%rax, %rdx
	movq	%rbx, %rsi
	movq	%rcx, %rdi
	call	_ZSt23__copy_move_backward_a2ILb0EPiS0_ET1_T0_S2_S1_
	addq	$40, %rsp
	popq	%rbx
	popq	%rbp
	.cfi_def_cfa 7, 8
	ret
	.cfi_endproc
.LFE1539:
	.size	_ZSt13copy_backwardIPiS0_ET0_T_S2_S1_, .-_ZSt13copy_backwardIPiS0_ET0_T_S2_S1_
	.section	.text._ZSt25__unguarded_linear_insertIPiN9__gnu_cxx5__ops14_Val_less_iterEEvT_T0_,"axG",@progbits,_ZSt25__unguarded_linear_insertIPiN9__gnu_cxx5__ops14_Val_less_iterEEvT_T0_,comdat
	.weak	_ZSt25__unguarded_linear_insertIPiN9__gnu_cxx5__ops14_Val_less_iterEEvT_T0_
	.type	_ZSt25__unguarded_linear_insertIPiN9__gnu_cxx5__ops14_Val_less_iterEEvT_T0_, @function
_ZSt25__unguarded_linear_insertIPiN9__gnu_cxx5__ops14_Val_less_iterEEvT_T0_:
.LFB1540:
	.cfi_startproc
	pushq	%rbp
	.cfi_def_cfa_offset 16
	.cfi_offset 6, -16
	movq	%rsp, %rbp
	.cfi_def_cfa_register 6
	subq	$48, %rsp
	movq	%rdi, -40(%rbp)
	movq	%fs:40, %rax
	movq	%rax, -8(%rbp)
	xorl	%eax, %eax
	movq	-40(%rbp), %rax
	movl	(%rax), %eax
	movl	%eax, -20(%rbp)
	movq	-40(%rbp), %rax
	movq	%rax, -16(%rbp)
	subq	$4, -16(%rbp)
.L264:
	movq	-16(%rbp), %rdx
	leaq	-20(%rbp), %rax
	movq	%rax, %rsi
	leaq	16(%rbp), %rdi
	call	_ZNK9__gnu_cxx5__ops14_Val_less_iterclIiPiEEbRT_T0_
	testb	%al, %al
	je	.L263
	movq	-16(%rbp), %rax
	movl	(%rax), %edx
	movq	-40(%rbp), %rax
	movl	%edx, (%rax)
	movq	-16(%rbp), %rax
	movq	%rax, -40(%rbp)
	subq	$4, -16(%rbp)
	jmp	.L264
.L263:
	movl	-20(%rbp), %edx
	movq	-40(%rbp), %rax
	movl	%edx, (%rax)
	nop
	movq	-8(%rbp), %rax
	xorq	%fs:40, %rax
	je	.L265
	call	__stack_chk_fail
.L265:
	leave
	.cfi_def_cfa 7, 8
	ret
	.cfi_endproc
.LFE1540:
	.size	_ZSt25__unguarded_linear_insertIPiN9__gnu_cxx5__ops14_Val_less_iterEEvT_T0_, .-_ZSt25__unguarded_linear_insertIPiN9__gnu_cxx5__ops14_Val_less_iterEEvT_T0_
	.section	.text._ZNKSt8_Rb_treeIiiSt9_IdentityIiESt4lessIiESaIiEE13get_allocatorEv,"axG",@progbits,_ZNKSt8_Rb_treeIiiSt9_IdentityIiESt4lessIiESaIiEE13get_allocatorEv,comdat
	.align 2
	.weak	_ZNKSt8_Rb_treeIiiSt9_IdentityIiESt4lessIiESaIiEE13get_allocatorEv
	.type	_ZNKSt8_Rb_treeIiiSt9_IdentityIiESt4lessIiESaIiEE13get_allocatorEv, @function
_ZNKSt8_Rb_treeIiiSt9_IdentityIiESt4lessIiESaIiEE13get_allocatorEv:
.LFB1541:
	.cfi_startproc
	pushq	%rbp
	.cfi_def_cfa_offset 16
	.cfi_offset 6, -16
	movq	%rsp, %rbp
	.cfi_def_cfa_register 6
	subq	$16, %rsp
	movq	%rdi, -8(%rbp)
	movq	%rsi, -16(%rbp)
	movq	-16(%rbp), %rax
	movq	%rax, %rdi
	call	_ZNKSt8_Rb_treeIiiSt9_IdentityIiESt4lessIiESaIiEE21_M_get_Node_allocatorEv
	movq	%rax, %rdx
	movq	-8(%rbp), %rax
	movq	%rdx, %rsi
	movq	%rax, %rdi
	call	_ZNSaIiEC1ISt13_Rb_tree_nodeIiEEERKSaIT_E
	movq	-8(%rbp), %rax
	leave
	.cfi_def_cfa 7, 8
	ret
	.cfi_endproc
.LFE1541:
	.size	_ZNKSt8_Rb_treeIiiSt9_IdentityIiESt4lessIiESaIiEE13get_allocatorEv, .-_ZNKSt8_Rb_treeIiiSt9_IdentityIiESt4lessIiESaIiEE13get_allocatorEv
	.section	.text._ZNSaIiED2Ev,"axG",@progbits,_ZNSaIiED5Ev,comdat
	.align 2
	.weak	_ZNSaIiED2Ev
	.type	_ZNSaIiED2Ev, @function
_ZNSaIiED2Ev:
.LFB1543:
	.cfi_startproc
	pushq	%rbp
	.cfi_def_cfa_offset 16
	.cfi_offset 6, -16
	movq	%rsp, %rbp
	.cfi_def_cfa_register 6
	subq	$16, %rsp
	movq	%rdi, -8(%rbp)
	movq	-8(%rbp), %rax
	movq	%rax, %rdi
	call	_ZN9__gnu_cxx13new_allocatorIiED2Ev
	nop
	leave
	.cfi_def_cfa 7, 8
	ret
	.cfi_endproc
.LFE1543:
	.size	_ZNSaIiED2Ev, .-_ZNSaIiED2Ev
	.weak	_ZNSaIiED1Ev
	.set	_ZNSaIiED1Ev,_ZNSaIiED2Ev
	.section	.text._ZNSt13_Rb_tree_nodeIiE9_M_valptrEv,"axG",@progbits,_ZNSt13_Rb_tree_nodeIiE9_M_valptrEv,comdat
	.align 2
	.weak	_ZNSt13_Rb_tree_nodeIiE9_M_valptrEv
	.type	_ZNSt13_Rb_tree_nodeIiE9_M_valptrEv, @function
_ZNSt13_Rb_tree_nodeIiE9_M_valptrEv:
.LFB1545:
	.cfi_startproc
	pushq	%rbp
	.cfi_def_cfa_offset 16
	.cfi_offset 6, -16
	movq	%rsp, %rbp
	.cfi_def_cfa_register 6
	subq	$16, %rsp
	movq	%rdi, -8(%rbp)
	movq	-8(%rbp), %rax
	addq	$32, %rax
	movq	%rax, %rdi
	call	_ZSt11__addressofIiEPT_RS0_
	leave
	.cfi_def_cfa 7, 8
	ret
	.cfi_endproc
.LFE1545:
	.size	_ZNSt13_Rb_tree_nodeIiE9_M_valptrEv, .-_ZNSt13_Rb_tree_nodeIiE9_M_valptrEv
	.section	.text._ZN9__gnu_cxx13new_allocatorIiE7destroyEPi,"axG",@progbits,_ZN9__gnu_cxx13new_allocatorIiE7destroyEPi,comdat
	.align 2
	.weak	_ZN9__gnu_cxx13new_allocatorIiE7destroyEPi
	.type	_ZN9__gnu_cxx13new_allocatorIiE7destroyEPi, @function
_ZN9__gnu_cxx13new_allocatorIiE7destroyEPi:
.LFB1546:
	.cfi_startproc
	pushq	%rbp
	.cfi_def_cfa_offset 16
	.cfi_offset 6, -16
	movq	%rsp, %rbp
	.cfi_def_cfa_register 6
	movq	%rdi, -8(%rbp)
	movq	%rsi, -16(%rbp)
	nop
	popq	%rbp
	.cfi_def_cfa 7, 8
	ret
	.cfi_endproc
.LFE1546:
	.size	_ZN9__gnu_cxx13new_allocatorIiE7destroyEPi, .-_ZN9__gnu_cxx13new_allocatorIiE7destroyEPi
	.section	.text._ZN9__gnu_cxx14__alloc_traitsISaISt13_Rb_tree_nodeIiEEE10deallocateERS3_PS2_m,"axG",@progbits,_ZN9__gnu_cxx14__alloc_traitsISaISt13_Rb_tree_nodeIiEEE10deallocateERS3_PS2_m,comdat
	.weak	_ZN9__gnu_cxx14__alloc_traitsISaISt13_Rb_tree_nodeIiEEE10deallocateERS3_PS2_m
	.type	_ZN9__gnu_cxx14__alloc_traitsISaISt13_Rb_tree_nodeIiEEE10deallocateERS3_PS2_m, @function
_ZN9__gnu_cxx14__alloc_traitsISaISt13_Rb_tree_nodeIiEEE10deallocateERS3_PS2_m:
.LFB1547:
	.cfi_startproc
	pushq	%rbp
	.cfi_def_cfa_offset 16
	.cfi_offset 6, -16
	movq	%rsp, %rbp
	.cfi_def_cfa_register 6
	subq	$32, %rsp
	movq	%rdi, -8(%rbp)
	movq	%rsi, -16(%rbp)
	movq	%rdx, -24(%rbp)
	movq	-24(%rbp), %rdx
	movq	-16(%rbp), %rcx
	movq	-8(%rbp), %rax
	movq	%rcx, %rsi
	movq	%rax, %rdi
	call	_ZN9__gnu_cxx13new_allocatorISt13_Rb_tree_nodeIiEE10deallocateEPS2_m
	nop
	leave
	.cfi_def_cfa 7, 8
	ret
	.cfi_endproc
.LFE1547:
	.size	_ZN9__gnu_cxx14__alloc_traitsISaISt13_Rb_tree_nodeIiEEE10deallocateERS3_PS2_m, .-_ZN9__gnu_cxx14__alloc_traitsISaISt13_Rb_tree_nodeIiEEE10deallocateERS3_PS2_m
	.section	.text._ZNSt8_Rb_treeIiiSt9_IdentityIiESt4lessIiESaIiEE21_M_get_Node_allocatorEv,"axG",@progbits,_ZNSt8_Rb_treeIiiSt9_IdentityIiESt4lessIiESaIiEE21_M_get_Node_allocatorEv,comdat
	.align 2
	.weak	_ZNSt8_Rb_treeIiiSt9_IdentityIiESt4lessIiESaIiEE21_M_get_Node_allocatorEv
	.type	_ZNSt8_Rb_treeIiiSt9_IdentityIiESt4lessIiESaIiEE21_M_get_Node_allocatorEv, @function
_ZNSt8_Rb_treeIiiSt9_IdentityIiESt4lessIiESaIiEE21_M_get_Node_allocatorEv:
.LFB1548:
	.cfi_startproc
	pushq	%rbp
	.cfi_def_cfa_offset 16
	.cfi_offset 6, -16
	movq	%rsp, %rbp
	.cfi_def_cfa_register 6
	movq	%rdi, -8(%rbp)
	movq	-8(%rbp), %rax
	popq	%rbp
	.cfi_def_cfa 7, 8
	ret
	.cfi_endproc
.LFE1548:
	.size	_ZNSt8_Rb_treeIiiSt9_IdentityIiESt4lessIiESaIiEE21_M_get_Node_allocatorEv, .-_ZNSt8_Rb_treeIiiSt9_IdentityIiESt4lessIiESaIiEE21_M_get_Node_allocatorEv
	.section	.text._ZSt11__addressofIKiEPT_RS1_,"axG",@progbits,_ZSt11__addressofIKiEPT_RS1_,comdat
	.weak	_ZSt11__addressofIKiEPT_RS1_
	.type	_ZSt11__addressofIKiEPT_RS1_, @function
_ZSt11__addressofIKiEPT_RS1_:
.LFB1549:
	.cfi_startproc
	pushq	%rbp
	.cfi_def_cfa_offset 16
	.cfi_offset 6, -16
	movq	%rsp, %rbp
	.cfi_def_cfa_register 6
	movq	%rdi, -8(%rbp)
	movq	-8(%rbp), %rax
	popq	%rbp
	.cfi_def_cfa 7, 8
	ret
	.cfi_endproc
.LFE1549:
	.size	_ZSt11__addressofIKiEPT_RS1_, .-_ZSt11__addressofIKiEPT_RS1_
	.section	.text._ZNSt8_Rb_treeIiiSt9_IdentityIiESt4lessIiESaIiEE11_M_get_nodeEv,"axG",@progbits,_ZNSt8_Rb_treeIiiSt9_IdentityIiESt4lessIiESaIiEE11_M_get_nodeEv,comdat
	.align 2
	.weak	_ZNSt8_Rb_treeIiiSt9_IdentityIiESt4lessIiESaIiEE11_M_get_nodeEv
	.type	_ZNSt8_Rb_treeIiiSt9_IdentityIiESt4lessIiESaIiEE11_M_get_nodeEv, @function
_ZNSt8_Rb_treeIiiSt9_IdentityIiESt4lessIiESaIiEE11_M_get_nodeEv:
.LFB1550:
	.cfi_startproc
	pushq	%rbp
	.cfi_def_cfa_offset 16
	.cfi_offset 6, -16
	movq	%rsp, %rbp
	.cfi_def_cfa_register 6
	subq	$16, %rsp
	movq	%rdi, -8(%rbp)
	movq	-8(%rbp), %rax
	movq	%rax, %rdi
	call	_ZNSt8_Rb_treeIiiSt9_IdentityIiESt4lessIiESaIiEE21_M_get_Node_allocatorEv
	movl	$1, %esi
	movq	%rax, %rdi
	call	_ZN9__gnu_cxx14__alloc_traitsISaISt13_Rb_tree_nodeIiEEE8allocateERS3_m
	leave
	.cfi_def_cfa 7, 8
	ret
	.cfi_endproc
.LFE1550:
	.size	_ZNSt8_Rb_treeIiiSt9_IdentityIiESt4lessIiESaIiEE11_M_get_nodeEv, .-_ZNSt8_Rb_treeIiiSt9_IdentityIiESt4lessIiESaIiEE11_M_get_nodeEv
	.section	.text._ZNSt8_Rb_treeIiiSt9_IdentityIiESt4lessIiESaIiEE17_M_construct_nodeEPSt13_Rb_tree_nodeIiERKi,"axG",@progbits,_ZNSt8_Rb_treeIiiSt9_IdentityIiESt4lessIiESaIiEE17_M_construct_nodeEPSt13_Rb_tree_nodeIiERKi,comdat
	.align 2
	.weak	_ZNSt8_Rb_treeIiiSt9_IdentityIiESt4lessIiESaIiEE17_M_construct_nodeEPSt13_Rb_tree_nodeIiERKi
	.type	_ZNSt8_Rb_treeIiiSt9_IdentityIiESt4lessIiESaIiEE17_M_construct_nodeEPSt13_Rb_tree_nodeIiERKi, @function
_ZNSt8_Rb_treeIiiSt9_IdentityIiESt4lessIiESaIiEE17_M_construct_nodeEPSt13_Rb_tree_nodeIiERKi:
.LFB1551:
	.cfi_startproc
	pushq	%rbp
	.cfi_def_cfa_offset 16
	.cfi_offset 6, -16
	movq	%rsp, %rbp
	.cfi_def_cfa_register 6
	pushq	%rbx
	subq	$56, %rsp
	.cfi_offset 3, -24
	movq	%rdi, -40(%rbp)
	movq	%rsi, -48(%rbp)
	movq	%rdx, -56(%rbp)
	movq	%fs:40, %rax
	movq	%rax, -24(%rbp)
	xorl	%eax, %eax
	movq	-48(%rbp), %rax
	movq	%rax, %rdi
	call	_ZNSt13_Rb_tree_nodeIiE9_M_valptrEv
	movq	%rax, %rbx
	leaq	-25(%rbp), %rax
	movq	-40(%rbp), %rdx
	movq	%rdx, %rsi
	movq	%rax, %rdi
	call	_ZNKSt8_Rb_treeIiiSt9_IdentityIiESt4lessIiESaIiEE13get_allocatorEv
	movq	-56(%rbp), %rdx
	leaq	-25(%rbp), %rax
	movq	%rbx, %rsi
	movq	%rax, %rdi
	call	_ZN9__gnu_cxx13new_allocatorIiE9constructEPiRKi
	leaq	-25(%rbp), %rax
	movq	%rax, %rdi
	call	_ZNSaIiED1Ev
	nop
	movq	-24(%rbp), %rax
	xorq	%fs:40, %rax
	je	.L280
	call	__stack_chk_fail
.L280:
	addq	$56, %rsp
	popq	%rbx
	popq	%rbp
	.cfi_def_cfa 7, 8
	ret
	.cfi_endproc
.LFE1551:
	.size	_ZNSt8_Rb_treeIiiSt9_IdentityIiESt4lessIiESaIiEE17_M_construct_nodeEPSt13_Rb_tree_nodeIiERKi, .-_ZNSt8_Rb_treeIiiSt9_IdentityIiESt4lessIiESaIiEE17_M_construct_nodeEPSt13_Rb_tree_nodeIiERKi
	.section	.text._ZSt11__make_heapIPiN9__gnu_cxx5__ops15_Iter_less_iterEEvT_S4_T0_,"axG",@progbits,_ZSt11__make_heapIPiN9__gnu_cxx5__ops15_Iter_less_iterEEvT_S4_T0_,comdat
	.weak	_ZSt11__make_heapIPiN9__gnu_cxx5__ops15_Iter_less_iterEEvT_S4_T0_
	.type	_ZSt11__make_heapIPiN9__gnu_cxx5__ops15_Iter_less_iterEEvT_S4_T0_, @function
_ZSt11__make_heapIPiN9__gnu_cxx5__ops15_Iter_less_iterEEvT_S4_T0_:
.LFB1552:
	.cfi_startproc
	pushq	%rbp
	.cfi_def_cfa_offset 16
	.cfi_offset 6, -16
	movq	%rsp, %rbp
	.cfi_def_cfa_register 6
	pushq	%rbx
	subq	$56, %rsp
	.cfi_offset 3, -24
	movq	%rdi, -56(%rbp)
	movq	%rsi, -64(%rbp)
	movq	-64(%rbp), %rdx
	movq	-56(%rbp), %rax
	subq	%rax, %rdx
	movq	%rdx, %rax
	cmpq	$7, %rax
	jle	.L286
	movq	-64(%rbp), %rdx
	movq	-56(%rbp), %rax
	subq	%rax, %rdx
	movq	%rdx, %rax
	sarq	$2, %rax
	movq	%rax, -24(%rbp)
	movq	-24(%rbp), %rax
	subq	$2, %rax
	movq	%rax, %rdx
	shrq	$63, %rdx
	addq	%rdx, %rax
	sarq	%rax
	movq	%rax, -32(%rbp)
.L285:
	movq	-32(%rbp), %rax
	leaq	0(,%rax,4), %rdx
	movq	-56(%rbp), %rax
	addq	%rdx, %rax
	movl	(%rax), %eax
	movl	%eax, -36(%rbp)
	movl	-36(%rbp), %ecx
	movq	-24(%rbp), %rdx
	movq	-32(%rbp), %rsi
	movq	-56(%rbp), %rax
	subq	$8, %rsp
	pushq	%rbx
	movq	%rax, %rdi
	call	_ZSt13__adjust_heapIPiliN9__gnu_cxx5__ops15_Iter_less_iterEEvT_T0_S5_T1_T2_
	addq	$16, %rsp
	cmpq	$0, -32(%rbp)
	je	.L287
	subq	$1, -32(%rbp)
	jmp	.L285
.L286:
	nop
	jmp	.L281
.L287:
	nop
.L281:
	movq	-8(%rbp), %rbx
	leave
	.cfi_def_cfa 7, 8
	ret
	.cfi_endproc
.LFE1552:
	.size	_ZSt11__make_heapIPiN9__gnu_cxx5__ops15_Iter_less_iterEEvT_S4_T0_, .-_ZSt11__make_heapIPiN9__gnu_cxx5__ops15_Iter_less_iterEEvT_S4_T0_
	.section	.text._ZSt10__pop_heapIPiN9__gnu_cxx5__ops15_Iter_less_iterEEvT_S4_S4_T0_,"axG",@progbits,_ZSt10__pop_heapIPiN9__gnu_cxx5__ops15_Iter_less_iterEEvT_S4_S4_T0_,comdat
	.weak	_ZSt10__pop_heapIPiN9__gnu_cxx5__ops15_Iter_less_iterEEvT_S4_S4_T0_
	.type	_ZSt10__pop_heapIPiN9__gnu_cxx5__ops15_Iter_less_iterEEvT_S4_S4_T0_, @function
_ZSt10__pop_heapIPiN9__gnu_cxx5__ops15_Iter_less_iterEEvT_S4_S4_T0_:
.LFB1553:
	.cfi_startproc
	pushq	%rbp
	.cfi_def_cfa_offset 16
	.cfi_offset 6, -16
	movq	%rsp, %rbp
	.cfi_def_cfa_register 6
	subq	$48, %rsp
	movq	%rdi, -24(%rbp)
	movq	%rsi, -32(%rbp)
	movq	%rdx, -40(%rbp)
	movq	-40(%rbp), %rax
	movl	(%rax), %eax
	movl	%eax, -4(%rbp)
	movq	-24(%rbp), %rax
	movl	(%rax), %edx
	movq	-40(%rbp), %rax
	movl	%edx, (%rax)
	movq	-32(%rbp), %rdx
	movq	-24(%rbp), %rax
	subq	%rax, %rdx
	movq	%rdx, %rax
	sarq	$2, %rax
	movq	%rax, %rsi
	movl	-4(%rbp), %edx
	movq	-24(%rbp), %rax
	subq	$8, %rsp
	pushq	%rcx
	movl	%edx, %ecx
	movq	%rsi, %rdx
	movl	$0, %esi
	movq	%rax, %rdi
	call	_ZSt13__adjust_heapIPiliN9__gnu_cxx5__ops15_Iter_less_iterEEvT_T0_S5_T1_T2_
	addq	$16, %rsp
	nop
	leave
	.cfi_def_cfa 7, 8
	ret
	.cfi_endproc
.LFE1553:
	.size	_ZSt10__pop_heapIPiN9__gnu_cxx5__ops15_Iter_less_iterEEvT_S4_S4_T0_, .-_ZSt10__pop_heapIPiN9__gnu_cxx5__ops15_Iter_less_iterEEvT_S4_S4_T0_
	.section	.text._ZSt9iter_swapIPiS0_EvT_T0_,"axG",@progbits,_ZSt9iter_swapIPiS0_EvT_T0_,comdat
	.weak	_ZSt9iter_swapIPiS0_EvT_T0_
	.type	_ZSt9iter_swapIPiS0_EvT_T0_, @function
_ZSt9iter_swapIPiS0_EvT_T0_:
.LFB1554:
	.cfi_startproc
	pushq	%rbp
	.cfi_def_cfa_offset 16
	.cfi_offset 6, -16
	movq	%rsp, %rbp
	.cfi_def_cfa_register 6
	subq	$16, %rsp
	movq	%rdi, -8(%rbp)
	movq	%rsi, -16(%rbp)
	movq	-16(%rbp), %rdx
	movq	-8(%rbp), %rax
	movq	%rdx, %rsi
	movq	%rax, %rdi
	call	_ZNSt11__iter_swapILb1EE9iter_swapIPiS2_EEvT_T0_
	nop
	leave
	.cfi_def_cfa 7, 8
	ret
	.cfi_endproc
.LFE1554:
	.size	_ZSt9iter_swapIPiS0_EvT_T0_, .-_ZSt9iter_swapIPiS0_EvT_T0_
	.section	.text._ZSt12__miter_baseIPiENSt11_Miter_baseIT_E13iterator_typeES2_,"axG",@progbits,_ZSt12__miter_baseIPiENSt11_Miter_baseIT_E13iterator_typeES2_,comdat
	.weak	_ZSt12__miter_baseIPiENSt11_Miter_baseIT_E13iterator_typeES2_
	.type	_ZSt12__miter_baseIPiENSt11_Miter_baseIT_E13iterator_typeES2_, @function
_ZSt12__miter_baseIPiENSt11_Miter_baseIT_E13iterator_typeES2_:
.LFB1555:
	.cfi_startproc
	pushq	%rbp
	.cfi_def_cfa_offset 16
	.cfi_offset 6, -16
	movq	%rsp, %rbp
	.cfi_def_cfa_register 6
	subq	$16, %rsp
	movq	%rdi, -8(%rbp)
	movq	-8(%rbp), %rax
	movq	%rax, %rdi
	call	_ZNSt10_Iter_baseIPiLb0EE7_S_baseES0_
	leave
	.cfi_def_cfa 7, 8
	ret
	.cfi_endproc
.LFE1555:
	.size	_ZSt12__miter_baseIPiENSt11_Miter_baseIT_E13iterator_typeES2_, .-_ZSt12__miter_baseIPiENSt11_Miter_baseIT_E13iterator_typeES2_
	.section	.text._ZSt23__copy_move_backward_a2ILb0EPiS0_ET1_T0_S2_S1_,"axG",@progbits,_ZSt23__copy_move_backward_a2ILb0EPiS0_ET1_T0_S2_S1_,comdat
	.weak	_ZSt23__copy_move_backward_a2ILb0EPiS0_ET1_T0_S2_S1_
	.type	_ZSt23__copy_move_backward_a2ILb0EPiS0_ET1_T0_S2_S1_, @function
_ZSt23__copy_move_backward_a2ILb0EPiS0_ET1_T0_S2_S1_:
.LFB1556:
	.cfi_startproc
	pushq	%rbp
	.cfi_def_cfa_offset 16
	.cfi_offset 6, -16
	movq	%rsp, %rbp
	.cfi_def_cfa_register 6
	pushq	%r12
	pushq	%rbx
	subq	$32, %rsp
	.cfi_offset 12, -24
	.cfi_offset 3, -32
	movq	%rdi, -24(%rbp)
	movq	%rsi, -32(%rbp)
	movq	%rdx, -40(%rbp)
	movq	-40(%rbp), %rax
	movq	%rax, %rdi
	call	_ZSt12__niter_baseIPiENSt11_Niter_baseIT_E13iterator_typeES2_
	movq	%rax, %r12
	movq	-32(%rbp), %rax
	movq	%rax, %rdi
	call	_ZSt12__niter_baseIPiENSt11_Niter_baseIT_E13iterator_typeES2_
	movq	%rax, %rbx
	movq	-24(%rbp), %rax
	movq	%rax, %rdi
	call	_ZSt12__niter_baseIPiENSt11_Niter_baseIT_E13iterator_typeES2_
	movq	%r12, %rdx
	movq	%rbx, %rsi
	movq	%rax, %rdi
	call	_ZSt22__copy_move_backward_aILb0EPiS0_ET1_T0_S2_S1_
	addq	$32, %rsp
	popq	%rbx
	popq	%r12
	popq	%rbp
	.cfi_def_cfa 7, 8
	ret
	.cfi_endproc
.LFE1556:
	.size	_ZSt23__copy_move_backward_a2ILb0EPiS0_ET1_T0_S2_S1_, .-_ZSt23__copy_move_backward_a2ILb0EPiS0_ET1_T0_S2_S1_
	.section	.text._ZNK9__gnu_cxx5__ops14_Val_less_iterclIiPiEEbRT_T0_,"axG",@progbits,_ZNK9__gnu_cxx5__ops14_Val_less_iterclIiPiEEbRT_T0_,comdat
	.align 2
	.weak	_ZNK9__gnu_cxx5__ops14_Val_less_iterclIiPiEEbRT_T0_
	.type	_ZNK9__gnu_cxx5__ops14_Val_less_iterclIiPiEEbRT_T0_, @function
_ZNK9__gnu_cxx5__ops14_Val_less_iterclIiPiEEbRT_T0_:
.LFB1557:
	.cfi_startproc
	pushq	%rbp
	.cfi_def_cfa_offset 16
	.cfi_offset 6, -16
	movq	%rsp, %rbp
	.cfi_def_cfa_register 6
	movq	%rdi, -8(%rbp)
	movq	%rsi, -16(%rbp)
	movq	%rdx, -24(%rbp)
	movq	-16(%rbp), %rax
	movl	(%rax), %edx
	movq	-24(%rbp), %rax
	movl	(%rax), %eax
	cmpl	%eax, %edx
	setl	%al
	popq	%rbp
	.cfi_def_cfa 7, 8
	ret
	.cfi_endproc
.LFE1557:
	.size	_ZNK9__gnu_cxx5__ops14_Val_less_iterclIiPiEEbRT_T0_, .-_ZNK9__gnu_cxx5__ops14_Val_less_iterclIiPiEEbRT_T0_
	.section	.text._ZNKSt8_Rb_treeIiiSt9_IdentityIiESt4lessIiESaIiEE21_M_get_Node_allocatorEv,"axG",@progbits,_ZNKSt8_Rb_treeIiiSt9_IdentityIiESt4lessIiESaIiEE21_M_get_Node_allocatorEv,comdat
	.align 2
	.weak	_ZNKSt8_Rb_treeIiiSt9_IdentityIiESt4lessIiESaIiEE21_M_get_Node_allocatorEv
	.type	_ZNKSt8_Rb_treeIiiSt9_IdentityIiESt4lessIiESaIiEE21_M_get_Node_allocatorEv, @function
_ZNKSt8_Rb_treeIiiSt9_IdentityIiESt4lessIiESaIiEE21_M_get_Node_allocatorEv:
.LFB1558:
	.cfi_startproc
	pushq	%rbp
	.cfi_def_cfa_offset 16
	.cfi_offset 6, -16
	movq	%rsp, %rbp
	.cfi_def_cfa_register 6
	movq	%rdi, -8(%rbp)
	movq	-8(%rbp), %rax
	popq	%rbp
	.cfi_def_cfa 7, 8
	ret
	.cfi_endproc
.LFE1558:
	.size	_ZNKSt8_Rb_treeIiiSt9_IdentityIiESt4lessIiESaIiEE21_M_get_Node_allocatorEv, .-_ZNKSt8_Rb_treeIiiSt9_IdentityIiESt4lessIiESaIiEE21_M_get_Node_allocatorEv
	.section	.text._ZNSaIiEC2ISt13_Rb_tree_nodeIiEEERKSaIT_E,"axG",@progbits,_ZNSaIiEC5ISt13_Rb_tree_nodeIiEEERKSaIT_E,comdat
	.align 2
	.weak	_ZNSaIiEC2ISt13_Rb_tree_nodeIiEEERKSaIT_E
	.type	_ZNSaIiEC2ISt13_Rb_tree_nodeIiEEERKSaIT_E, @function
_ZNSaIiEC2ISt13_Rb_tree_nodeIiEEERKSaIT_E:
.LFB1560:
	.cfi_startproc
	pushq	%rbp
	.cfi_def_cfa_offset 16
	.cfi_offset 6, -16
	movq	%rsp, %rbp
	.cfi_def_cfa_register 6
	subq	$16, %rsp
	movq	%rdi, -8(%rbp)
	movq	%rsi, -16(%rbp)
	movq	-8(%rbp), %rax
	movq	%rax, %rdi
	call	_ZN9__gnu_cxx13new_allocatorIiEC2Ev
	nop
	leave
	.cfi_def_cfa 7, 8
	ret
	.cfi_endproc
.LFE1560:
	.size	_ZNSaIiEC2ISt13_Rb_tree_nodeIiEEERKSaIT_E, .-_ZNSaIiEC2ISt13_Rb_tree_nodeIiEEERKSaIT_E
	.weak	_ZNSaIiEC1ISt13_Rb_tree_nodeIiEEERKSaIT_E
	.set	_ZNSaIiEC1ISt13_Rb_tree_nodeIiEEERKSaIT_E,_ZNSaIiEC2ISt13_Rb_tree_nodeIiEEERKSaIT_E
	.section	.text._ZN9__gnu_cxx13new_allocatorIiED2Ev,"axG",@progbits,_ZN9__gnu_cxx13new_allocatorIiED5Ev,comdat
	.align 2
	.weak	_ZN9__gnu_cxx13new_allocatorIiED2Ev
	.type	_ZN9__gnu_cxx13new_allocatorIiED2Ev, @function
_ZN9__gnu_cxx13new_allocatorIiED2Ev:
.LFB1566:
	.cfi_startproc
	pushq	%rbp
	.cfi_def_cfa_offset 16
	.cfi_offset 6, -16
	movq	%rsp, %rbp
	.cfi_def_cfa_register 6
	movq	%rdi, -8(%rbp)
	nop
	popq	%rbp
	.cfi_def_cfa 7, 8
	ret
	.cfi_endproc
.LFE1566:
	.size	_ZN9__gnu_cxx13new_allocatorIiED2Ev, .-_ZN9__gnu_cxx13new_allocatorIiED2Ev
	.weak	_ZN9__gnu_cxx13new_allocatorIiED1Ev
	.set	_ZN9__gnu_cxx13new_allocatorIiED1Ev,_ZN9__gnu_cxx13new_allocatorIiED2Ev
	.section	.text._ZSt11__addressofIiEPT_RS0_,"axG",@progbits,_ZSt11__addressofIiEPT_RS0_,comdat
	.weak	_ZSt11__addressofIiEPT_RS0_
	.type	_ZSt11__addressofIiEPT_RS0_, @function
_ZSt11__addressofIiEPT_RS0_:
.LFB1568:
	.cfi_startproc
	pushq	%rbp
	.cfi_def_cfa_offset 16
	.cfi_offset 6, -16
	movq	%rsp, %rbp
	.cfi_def_cfa_register 6
	movq	%rdi, -8(%rbp)
	movq	-8(%rbp), %rax
	popq	%rbp
	.cfi_def_cfa 7, 8
	ret
	.cfi_endproc
.LFE1568:
	.size	_ZSt11__addressofIiEPT_RS0_, .-_ZSt11__addressofIiEPT_RS0_
	.section	.text._ZN9__gnu_cxx13new_allocatorISt13_Rb_tree_nodeIiEE10deallocateEPS2_m,"axG",@progbits,_ZN9__gnu_cxx13new_allocatorISt13_Rb_tree_nodeIiEE10deallocateEPS2_m,comdat
	.align 2
	.weak	_ZN9__gnu_cxx13new_allocatorISt13_Rb_tree_nodeIiEE10deallocateEPS2_m
	.type	_ZN9__gnu_cxx13new_allocatorISt13_Rb_tree_nodeIiEE10deallocateEPS2_m, @function
_ZN9__gnu_cxx13new_allocatorISt13_Rb_tree_nodeIiEE10deallocateEPS2_m:
.LFB1569:
	.cfi_startproc
	pushq	%rbp
	.cfi_def_cfa_offset 16
	.cfi_offset 6, -16
	movq	%rsp, %rbp
	.cfi_def_cfa_register 6
	subq	$32, %rsp
	movq	%rdi, -8(%rbp)
	movq	%rsi, -16(%rbp)
	movq	%rdx, -24(%rbp)
	movq	-16(%rbp), %rax
	movq	%rax, %rdi
	call	_ZdlPv
	nop
	leave
	.cfi_def_cfa 7, 8
	ret
	.cfi_endproc
.LFE1569:
	.size	_ZN9__gnu_cxx13new_allocatorISt13_Rb_tree_nodeIiEE10deallocateEPS2_m, .-_ZN9__gnu_cxx13new_allocatorISt13_Rb_tree_nodeIiEE10deallocateEPS2_m
	.section	.text._ZN9__gnu_cxx14__alloc_traitsISaISt13_Rb_tree_nodeIiEEE8allocateERS3_m,"axG",@progbits,_ZN9__gnu_cxx14__alloc_traitsISaISt13_Rb_tree_nodeIiEEE8allocateERS3_m,comdat
	.weak	_ZN9__gnu_cxx14__alloc_traitsISaISt13_Rb_tree_nodeIiEEE8allocateERS3_m
	.type	_ZN9__gnu_cxx14__alloc_traitsISaISt13_Rb_tree_nodeIiEEE8allocateERS3_m, @function
_ZN9__gnu_cxx14__alloc_traitsISaISt13_Rb_tree_nodeIiEEE8allocateERS3_m:
.LFB1570:
	.cfi_startproc
	pushq	%rbp
	.cfi_def_cfa_offset 16
	.cfi_offset 6, -16
	movq	%rsp, %rbp
	.cfi_def_cfa_register 6
	subq	$16, %rsp
	movq	%rdi, -8(%rbp)
	movq	%rsi, -16(%rbp)
	movq	-16(%rbp), %rcx
	movq	-8(%rbp), %rax
	movl	$0, %edx
	movq	%rcx, %rsi
	movq	%rax, %rdi
	call	_ZN9__gnu_cxx13new_allocatorISt13_Rb_tree_nodeIiEE8allocateEmPKv
	leave
	.cfi_def_cfa 7, 8
	ret
	.cfi_endproc
.LFE1570:
	.size	_ZN9__gnu_cxx14__alloc_traitsISaISt13_Rb_tree_nodeIiEEE8allocateERS3_m, .-_ZN9__gnu_cxx14__alloc_traitsISaISt13_Rb_tree_nodeIiEEE8allocateERS3_m
	.section	.text._ZN9__gnu_cxx13new_allocatorIiE9constructEPiRKi,"axG",@progbits,_ZN9__gnu_cxx13new_allocatorIiE9constructEPiRKi,comdat
	.align 2
	.weak	_ZN9__gnu_cxx13new_allocatorIiE9constructEPiRKi
	.type	_ZN9__gnu_cxx13new_allocatorIiE9constructEPiRKi, @function
_ZN9__gnu_cxx13new_allocatorIiE9constructEPiRKi:
.LFB1571:
	.cfi_startproc
	pushq	%rbp
	.cfi_def_cfa_offset 16
	.cfi_offset 6, -16
	movq	%rsp, %rbp
	.cfi_def_cfa_register 6
	subq	$32, %rsp
	movq	%rdi, -8(%rbp)
	movq	%rsi, -16(%rbp)
	movq	%rdx, -24(%rbp)
	movq	-16(%rbp), %rax
	movq	%rax, %rsi
	movl	$4, %edi
	call	_ZnwmPv
	testq	%rax, %rax
	je	.L308
	movq	-24(%rbp), %rdx
	movl	(%rdx), %edx
	movl	%edx, (%rax)
.L308:
	nop
	leave
	.cfi_def_cfa 7, 8
	ret
	.cfi_endproc
.LFE1571:
	.size	_ZN9__gnu_cxx13new_allocatorIiE9constructEPiRKi, .-_ZN9__gnu_cxx13new_allocatorIiE9constructEPiRKi
	.section	.text._ZSt13__adjust_heapIPiliN9__gnu_cxx5__ops15_Iter_less_iterEEvT_T0_S5_T1_T2_,"axG",@progbits,_ZSt13__adjust_heapIPiliN9__gnu_cxx5__ops15_Iter_less_iterEEvT_T0_S5_T1_T2_,comdat
	.weak	_ZSt13__adjust_heapIPiliN9__gnu_cxx5__ops15_Iter_less_iterEEvT_T0_S5_T1_T2_
	.type	_ZSt13__adjust_heapIPiliN9__gnu_cxx5__ops15_Iter_less_iterEEvT_T0_S5_T1_T2_, @function
_ZSt13__adjust_heapIPiliN9__gnu_cxx5__ops15_Iter_less_iterEEvT_T0_S5_T1_T2_:
.LFB1572:
	.cfi_startproc
	pushq	%rbp
	.cfi_def_cfa_offset 16
	.cfi_offset 6, -16
	movq	%rsp, %rbp
	.cfi_def_cfa_register 6
	pushq	%r12
	pushq	%rbx
	subq	$64, %rsp
	.cfi_offset 12, -24
	.cfi_offset 3, -32
	movq	%rdi, -56(%rbp)
	movq	%rsi, -64(%rbp)
	movq	%rdx, -72(%rbp)
	movl	%ecx, -76(%rbp)
	movq	%fs:40, %rax
	movq	%rax, -24(%rbp)
	xorl	%eax, %eax
	movq	-64(%rbp), %rax
	movq	%rax, -32(%rbp)
	movq	-64(%rbp), %rax
	movq	%rax, -40(%rbp)
.L312:
	movq	-72(%rbp), %rax
	subq	$1, %rax
	movq	%rax, %rdx
	shrq	$63, %rdx
	addq	%rdx, %rax
	sarq	%rax
	cmpq	-40(%rbp), %rax
	jle	.L310
	movq	-40(%rbp), %rax
	addq	$1, %rax
	addq	%rax, %rax
	movq	%rax, -40(%rbp)
	movq	-40(%rbp), %rax
	salq	$2, %rax
	leaq	-4(%rax), %rdx
	movq	-56(%rbp), %rax
	addq	%rax, %rdx
	movq	-40(%rbp), %rax
	leaq	0(,%rax,4), %rcx
	movq	-56(%rbp), %rax
	addq	%rcx, %rax
	movq	%rax, %rsi
	leaq	16(%rbp), %rdi
	call	_ZNK9__gnu_cxx5__ops15_Iter_less_iterclIPiS3_EEbT_T0_
	testb	%al, %al
	je	.L311
	subq	$1, -40(%rbp)
.L311:
	movq	-64(%rbp), %rax
	leaq	0(,%rax,4), %rdx
	movq	-56(%rbp), %rax
	addq	%rax, %rdx
	movq	-40(%rbp), %rax
	leaq	0(,%rax,4), %rcx
	movq	-56(%rbp), %rax
	addq	%rcx, %rax
	movl	(%rax), %eax
	movl	%eax, (%rdx)
	movq	-40(%rbp), %rax
	movq	%rax, -64(%rbp)
	jmp	.L312
.L310:
	movq	-72(%rbp), %rax
	andl	$1, %eax
	testq	%rax, %rax
	jne	.L313
	movq	-72(%rbp), %rax
	subq	$2, %rax
	movq	%rax, %rdx
	shrq	$63, %rdx
	addq	%rdx, %rax
	sarq	%rax
	cmpq	-40(%rbp), %rax
	jne	.L313
	movq	-40(%rbp), %rax
	addq	$1, %rax
	addq	%rax, %rax
	movq	%rax, -40(%rbp)
	movq	-64(%rbp), %rax
	leaq	0(,%rax,4), %rdx
	movq	-56(%rbp), %rax
	addq	%rax, %rdx
	movq	-40(%rbp), %rax
	salq	$2, %rax
	leaq	-4(%rax), %rcx
	movq	-56(%rbp), %rax
	addq	%rcx, %rax
	movl	(%rax), %eax
	movl	%eax, (%rdx)
	movq	-40(%rbp), %rax
	subq	$1, %rax
	movq	%rax, -64(%rbp)
.L313:
	subq	$8, %rsp
	pushq	%r12
	call	_ZN9__gnu_cxx5__ops15__iter_comp_valENS0_15_Iter_less_iterE
	addq	$16, %rsp
	movl	-76(%rbp), %ecx
	movq	-32(%rbp), %rdx
	movq	-64(%rbp), %rsi
	movq	-56(%rbp), %rax
	subq	$8, %rsp
	pushq	%rbx
	movq	%rax, %rdi
	call	_ZSt11__push_heapIPiliN9__gnu_cxx5__ops14_Iter_less_valEEvT_T0_S5_T1_T2_
	addq	$16, %rsp
	nop
	movq	-24(%rbp), %rax
	xorq	%fs:40, %rax
	je	.L314
	call	__stack_chk_fail
.L314:
	leaq	-16(%rbp), %rsp
	popq	%rbx
	popq	%r12
	popq	%rbp
	.cfi_def_cfa 7, 8
	ret
	.cfi_endproc
.LFE1572:
	.size	_ZSt13__adjust_heapIPiliN9__gnu_cxx5__ops15_Iter_less_iterEEvT_T0_S5_T1_T2_, .-_ZSt13__adjust_heapIPiliN9__gnu_cxx5__ops15_Iter_less_iterEEvT_T0_S5_T1_T2_
	.section	.text._ZNSt11__iter_swapILb1EE9iter_swapIPiS2_EEvT_T0_,"axG",@progbits,_ZNSt11__iter_swapILb1EE9iter_swapIPiS2_EEvT_T0_,comdat
	.weak	_ZNSt11__iter_swapILb1EE9iter_swapIPiS2_EEvT_T0_
	.type	_ZNSt11__iter_swapILb1EE9iter_swapIPiS2_EEvT_T0_, @function
_ZNSt11__iter_swapILb1EE9iter_swapIPiS2_EEvT_T0_:
.LFB1573:
	.cfi_startproc
	pushq	%rbp
	.cfi_def_cfa_offset 16
	.cfi_offset 6, -16
	movq	%rsp, %rbp
	.cfi_def_cfa_register 6
	subq	$16, %rsp
	movq	%rdi, -8(%rbp)
	movq	%rsi, -16(%rbp)
	movq	-16(%rbp), %rdx
	movq	-8(%rbp), %rax
	movq	%rdx, %rsi
	movq	%rax, %rdi
	call	_ZSt4swapIiEvRT_S1_
	nop
	leave
	.cfi_def_cfa 7, 8
	ret
	.cfi_endproc
.LFE1573:
	.size	_ZNSt11__iter_swapILb1EE9iter_swapIPiS2_EEvT_T0_, .-_ZNSt11__iter_swapILb1EE9iter_swapIPiS2_EEvT_T0_
	.section	.text._ZNSt10_Iter_baseIPiLb0EE7_S_baseES0_,"axG",@progbits,_ZNSt10_Iter_baseIPiLb0EE7_S_baseES0_,comdat
	.weak	_ZNSt10_Iter_baseIPiLb0EE7_S_baseES0_
	.type	_ZNSt10_Iter_baseIPiLb0EE7_S_baseES0_, @function
_ZNSt10_Iter_baseIPiLb0EE7_S_baseES0_:
.LFB1574:
	.cfi_startproc
	pushq	%rbp
	.cfi_def_cfa_offset 16
	.cfi_offset 6, -16
	movq	%rsp, %rbp
	.cfi_def_cfa_register 6
	movq	%rdi, -8(%rbp)
	movq	-8(%rbp), %rax
	popq	%rbp
	.cfi_def_cfa 7, 8
	ret
	.cfi_endproc
.LFE1574:
	.size	_ZNSt10_Iter_baseIPiLb0EE7_S_baseES0_, .-_ZNSt10_Iter_baseIPiLb0EE7_S_baseES0_
	.section	.text._ZSt12__niter_baseIPiENSt11_Niter_baseIT_E13iterator_typeES2_,"axG",@progbits,_ZSt12__niter_baseIPiENSt11_Niter_baseIT_E13iterator_typeES2_,comdat
	.weak	_ZSt12__niter_baseIPiENSt11_Niter_baseIT_E13iterator_typeES2_
	.type	_ZSt12__niter_baseIPiENSt11_Niter_baseIT_E13iterator_typeES2_, @function
_ZSt12__niter_baseIPiENSt11_Niter_baseIT_E13iterator_typeES2_:
.LFB1575:
	.cfi_startproc
	pushq	%rbp
	.cfi_def_cfa_offset 16
	.cfi_offset 6, -16
	movq	%rsp, %rbp
	.cfi_def_cfa_register 6
	subq	$16, %rsp
	movq	%rdi, -8(%rbp)
	movq	-8(%rbp), %rax
	movq	%rax, %rdi
	call	_ZNSt10_Iter_baseIPiLb0EE7_S_baseES0_
	leave
	.cfi_def_cfa 7, 8
	ret
	.cfi_endproc
.LFE1575:
	.size	_ZSt12__niter_baseIPiENSt11_Niter_baseIT_E13iterator_typeES2_, .-_ZSt12__niter_baseIPiENSt11_Niter_baseIT_E13iterator_typeES2_
	.section	.text._ZSt22__copy_move_backward_aILb0EPiS0_ET1_T0_S2_S1_,"axG",@progbits,_ZSt22__copy_move_backward_aILb0EPiS0_ET1_T0_S2_S1_,comdat
	.weak	_ZSt22__copy_move_backward_aILb0EPiS0_ET1_T0_S2_S1_
	.type	_ZSt22__copy_move_backward_aILb0EPiS0_ET1_T0_S2_S1_, @function
_ZSt22__copy_move_backward_aILb0EPiS0_ET1_T0_S2_S1_:
.LFB1576:
	.cfi_startproc
	pushq	%rbp
	.cfi_def_cfa_offset 16
	.cfi_offset 6, -16
	movq	%rsp, %rbp
	.cfi_def_cfa_register 6
	subq	$48, %rsp
	movq	%rdi, -24(%rbp)
	movq	%rsi, -32(%rbp)
	movq	%rdx, -40(%rbp)
	movb	$1, -1(%rbp)
	movq	-40(%rbp), %rdx
	movq	-32(%rbp), %rcx
	movq	-24(%rbp), %rax
	movq	%rcx, %rsi
	movq	%rax, %rdi
	call	_ZNSt20__copy_move_backwardILb0ELb1ESt26random_access_iterator_tagE13__copy_move_bIiEEPT_PKS3_S6_S4_
	leave
	.cfi_def_cfa 7, 8
	ret
	.cfi_endproc
.LFE1576:
	.size	_ZSt22__copy_move_backward_aILb0EPiS0_ET1_T0_S2_S1_, .-_ZSt22__copy_move_backward_aILb0EPiS0_ET1_T0_S2_S1_
	.section	.text._ZN9__gnu_cxx13new_allocatorIiEC2Ev,"axG",@progbits,_ZN9__gnu_cxx13new_allocatorIiEC5Ev,comdat
	.align 2
	.weak	_ZN9__gnu_cxx13new_allocatorIiEC2Ev
	.type	_ZN9__gnu_cxx13new_allocatorIiEC2Ev, @function
_ZN9__gnu_cxx13new_allocatorIiEC2Ev:
.LFB1578:
	.cfi_startproc
	pushq	%rbp
	.cfi_def_cfa_offset 16
	.cfi_offset 6, -16
	movq	%rsp, %rbp
	.cfi_def_cfa_register 6
	movq	%rdi, -8(%rbp)
	nop
	popq	%rbp
	.cfi_def_cfa 7, 8
	ret
	.cfi_endproc
.LFE1578:
	.size	_ZN9__gnu_cxx13new_allocatorIiEC2Ev, .-_ZN9__gnu_cxx13new_allocatorIiEC2Ev
	.weak	_ZN9__gnu_cxx13new_allocatorIiEC1Ev
	.set	_ZN9__gnu_cxx13new_allocatorIiEC1Ev,_ZN9__gnu_cxx13new_allocatorIiEC2Ev
	.section	.text._ZN9__gnu_cxx13new_allocatorISt13_Rb_tree_nodeIiEE8allocateEmPKv,"axG",@progbits,_ZN9__gnu_cxx13new_allocatorISt13_Rb_tree_nodeIiEE8allocateEmPKv,comdat
	.align 2
	.weak	_ZN9__gnu_cxx13new_allocatorISt13_Rb_tree_nodeIiEE8allocateEmPKv
	.type	_ZN9__gnu_cxx13new_allocatorISt13_Rb_tree_nodeIiEE8allocateEmPKv, @function
_ZN9__gnu_cxx13new_allocatorISt13_Rb_tree_nodeIiEE8allocateEmPKv:
.LFB1583:
	.cfi_startproc
	pushq	%rbp
	.cfi_def_cfa_offset 16
	.cfi_offset 6, -16
	movq	%rsp, %rbp
	.cfi_def_cfa_register 6
	subq	$32, %rsp
	movq	%rdi, -8(%rbp)
	movq	%rsi, -16(%rbp)
	movq	%rdx, -24(%rbp)
	movq	-8(%rbp), %rax
	movq	%rax, %rdi
	call	_ZNK9__gnu_cxx13new_allocatorISt13_Rb_tree_nodeIiEE8max_sizeEv
	cmpq	-16(%rbp), %rax
	setb	%al
	testb	%al, %al
	je	.L324
	call	_ZSt17__throw_bad_allocv
.L324:
	movq	-16(%rbp), %rdx
	movq	%rdx, %rax
	salq	$2, %rax
	addq	%rdx, %rax
	salq	$3, %rax
	movq	%rax, %rdi
	call	_Znwm
	leave
	.cfi_def_cfa 7, 8
	ret
	.cfi_endproc
.LFE1583:
	.size	_ZN9__gnu_cxx13new_allocatorISt13_Rb_tree_nodeIiEE8allocateEmPKv, .-_ZN9__gnu_cxx13new_allocatorISt13_Rb_tree_nodeIiEE8allocateEmPKv
	.section	.text._ZSt11__push_heapIPiliN9__gnu_cxx5__ops14_Iter_less_valEEvT_T0_S5_T1_T2_,"axG",@progbits,_ZSt11__push_heapIPiliN9__gnu_cxx5__ops14_Iter_less_valEEvT_T0_S5_T1_T2_,comdat
	.weak	_ZSt11__push_heapIPiliN9__gnu_cxx5__ops14_Iter_less_valEEvT_T0_S5_T1_T2_
	.type	_ZSt11__push_heapIPiliN9__gnu_cxx5__ops14_Iter_less_valEEvT_T0_S5_T1_T2_, @function
_ZSt11__push_heapIPiliN9__gnu_cxx5__ops14_Iter_less_valEEvT_T0_S5_T1_T2_:
.LFB1584:
	.cfi_startproc
	pushq	%rbp
	.cfi_def_cfa_offset 16
	.cfi_offset 6, -16
	movq	%rsp, %rbp
	.cfi_def_cfa_register 6
	subq	$48, %rsp
	movq	%rdi, -24(%rbp)
	movq	%rsi, -32(%rbp)
	movq	%rdx, -40(%rbp)
	movl	%ecx, -44(%rbp)
	movq	-32(%rbp), %rax
	subq	$1, %rax
	movq	%rax, %rdx
	shrq	$63, %rdx
	addq	%rdx, %rax
	sarq	%rax
	movq	%rax, -8(%rbp)
.L330:
	movq	-32(%rbp), %rax
	cmpq	-40(%rbp), %rax
	jle	.L327
	movq	-8(%rbp), %rax
	leaq	0(,%rax,4), %rdx
	movq	-24(%rbp), %rax
	leaq	(%rdx,%rax), %rcx
	leaq	-44(%rbp), %rax
	movq	%rax, %rdx
	movq	%rcx, %rsi
	leaq	16(%rbp), %rdi
	call	_ZNK9__gnu_cxx5__ops14_Iter_less_valclIPiiEEbT_RT0_
	testb	%al, %al
	je	.L327
	movl	$1, %eax
	jmp	.L328
.L327:
	movl	$0, %eax
.L328:
	testb	%al, %al
	je	.L329
	movq	-32(%rbp), %rax
	leaq	0(,%rax,4), %rdx
	movq	-24(%rbp), %rax
	addq	%rax, %rdx
	movq	-8(%rbp), %rax
	leaq	0(,%rax,4), %rcx
	movq	-24(%rbp), %rax
	addq	%rcx, %rax
	movl	(%rax), %eax
	movl	%eax, (%rdx)
	movq	-8(%rbp), %rax
	movq	%rax, -32(%rbp)
	movq	-32(%rbp), %rax
	subq	$1, %rax
	movq	%rax, %rdx
	shrq	$63, %rdx
	addq	%rdx, %rax
	sarq	%rax
	movq	%rax, -8(%rbp)
	jmp	.L330
.L329:
	movq	-32(%rbp), %rax
	leaq	0(,%rax,4), %rdx
	movq	-24(%rbp), %rax
	addq	%rax, %rdx
	movl	-44(%rbp), %eax
	movl	%eax, (%rdx)
	nop
	leave
	.cfi_def_cfa 7, 8
	ret
	.cfi_endproc
.LFE1584:
	.size	_ZSt11__push_heapIPiliN9__gnu_cxx5__ops14_Iter_less_valEEvT_T0_S5_T1_T2_, .-_ZSt11__push_heapIPiliN9__gnu_cxx5__ops14_Iter_less_valEEvT_T0_S5_T1_T2_
	.section	.text._ZSt4swapIiEvRT_S1_,"axG",@progbits,_ZSt4swapIiEvRT_S1_,comdat
	.weak	_ZSt4swapIiEvRT_S1_
	.type	_ZSt4swapIiEvRT_S1_, @function
_ZSt4swapIiEvRT_S1_:
.LFB1585:
	.cfi_startproc
	pushq	%rbp
	.cfi_def_cfa_offset 16
	.cfi_offset 6, -16
	movq	%rsp, %rbp
	.cfi_def_cfa_register 6
	movq	%rdi, -24(%rbp)
	movq	%rsi, -32(%rbp)
	movq	-24(%rbp), %rax
	movl	(%rax), %eax
	movl	%eax, -4(%rbp)
	movq	-32(%rbp), %rax
	movl	(%rax), %edx
	movq	-24(%rbp), %rax
	movl	%edx, (%rax)
	movq	-32(%rbp), %rax
	movl	-4(%rbp), %edx
	movl	%edx, (%rax)
	nop
	popq	%rbp
	.cfi_def_cfa 7, 8
	ret
	.cfi_endproc
.LFE1585:
	.size	_ZSt4swapIiEvRT_S1_, .-_ZSt4swapIiEvRT_S1_
	.section	.text._ZNSt20__copy_move_backwardILb0ELb1ESt26random_access_iterator_tagE13__copy_move_bIiEEPT_PKS3_S6_S4_,"axG",@progbits,_ZNSt20__copy_move_backwardILb0ELb1ESt26random_access_iterator_tagE13__copy_move_bIiEEPT_PKS3_S6_S4_,comdat
	.weak	_ZNSt20__copy_move_backwardILb0ELb1ESt26random_access_iterator_tagE13__copy_move_bIiEEPT_PKS3_S6_S4_
	.type	_ZNSt20__copy_move_backwardILb0ELb1ESt26random_access_iterator_tagE13__copy_move_bIiEEPT_PKS3_S6_S4_, @function
_ZNSt20__copy_move_backwardILb0ELb1ESt26random_access_iterator_tagE13__copy_move_bIiEEPT_PKS3_S6_S4_:
.LFB1586:
	.cfi_startproc
	pushq	%rbp
	.cfi_def_cfa_offset 16
	.cfi_offset 6, -16
	movq	%rsp, %rbp
	.cfi_def_cfa_register 6
	subq	$48, %rsp
	movq	%rdi, -24(%rbp)
	movq	%rsi, -32(%rbp)
	movq	%rdx, -40(%rbp)
	movq	-32(%rbp), %rdx
	movq	-24(%rbp), %rax
	subq	%rax, %rdx
	movq	%rdx, %rax
	sarq	$2, %rax
	movq	%rax, -8(%rbp)
	cmpq	$0, -8(%rbp)
	je	.L333
	movq	-8(%rbp), %rax
	leaq	0(,%rax,4), %rdx
	movq	-8(%rbp), %rax
	salq	$2, %rax
	negq	%rax
	movq	%rax, %rcx
	movq	-40(%rbp), %rax
	addq	%rax, %rcx
	movq	-24(%rbp), %rax
	movq	%rax, %rsi
	movq	%rcx, %rdi
	call	memmove
.L333:
	movq	-8(%rbp), %rax
	salq	$2, %rax
	negq	%rax
	movq	%rax, %rdx
	movq	-40(%rbp), %rax
	addq	%rdx, %rax
	leave
	.cfi_def_cfa 7, 8
	ret
	.cfi_endproc
.LFE1586:
	.size	_ZNSt20__copy_move_backwardILb0ELb1ESt26random_access_iterator_tagE13__copy_move_bIiEEPT_PKS3_S6_S4_, .-_ZNSt20__copy_move_backwardILb0ELb1ESt26random_access_iterator_tagE13__copy_move_bIiEEPT_PKS3_S6_S4_
	.section	.text._ZNK9__gnu_cxx13new_allocatorISt13_Rb_tree_nodeIiEE8max_sizeEv,"axG",@progbits,_ZNK9__gnu_cxx13new_allocatorISt13_Rb_tree_nodeIiEE8max_sizeEv,comdat
	.align 2
	.weak	_ZNK9__gnu_cxx13new_allocatorISt13_Rb_tree_nodeIiEE8max_sizeEv
	.type	_ZNK9__gnu_cxx13new_allocatorISt13_Rb_tree_nodeIiEE8max_sizeEv, @function
_ZNK9__gnu_cxx13new_allocatorISt13_Rb_tree_nodeIiEE8max_sizeEv:
.LFB1587:
	.cfi_startproc
	pushq	%rbp
	.cfi_def_cfa_offset 16
	.cfi_offset 6, -16
	movq	%rsp, %rbp
	.cfi_def_cfa_register 6
	movq	%rdi, -8(%rbp)
	movabsq	$461168601842738790, %rax
	popq	%rbp
	.cfi_def_cfa 7, 8
	ret
	.cfi_endproc
.LFE1587:
	.size	_ZNK9__gnu_cxx13new_allocatorISt13_Rb_tree_nodeIiEE8max_sizeEv, .-_ZNK9__gnu_cxx13new_allocatorISt13_Rb_tree_nodeIiEE8max_sizeEv
	.section	.text._ZNK9__gnu_cxx5__ops14_Iter_less_valclIPiiEEbT_RT0_,"axG",@progbits,_ZNK9__gnu_cxx5__ops14_Iter_less_valclIPiiEEbT_RT0_,comdat
	.align 2
	.weak	_ZNK9__gnu_cxx5__ops14_Iter_less_valclIPiiEEbT_RT0_
	.type	_ZNK9__gnu_cxx5__ops14_Iter_less_valclIPiiEEbT_RT0_, @function
_ZNK9__gnu_cxx5__ops14_Iter_less_valclIPiiEEbT_RT0_:
.LFB1588:
	.cfi_startproc
	pushq	%rbp
	.cfi_def_cfa_offset 16
	.cfi_offset 6, -16
	movq	%rsp, %rbp
	.cfi_def_cfa_register 6
	movq	%rdi, -8(%rbp)
	movq	%rsi, -16(%rbp)
	movq	%rdx, -24(%rbp)
	movq	-16(%rbp), %rax
	movl	(%rax), %edx
	movq	-24(%rbp), %rax
	movl	(%rax), %eax
	cmpl	%eax, %edx
	setl	%al
	popq	%rbp
	.cfi_def_cfa 7, 8
	ret
	.cfi_endproc
.LFE1588:
	.size	_ZNK9__gnu_cxx5__ops14_Iter_less_valclIPiiEEbT_RT0_, .-_ZNK9__gnu_cxx5__ops14_Iter_less_valclIPiiEEbT_RT0_
	.section	.text._ZNSt3setIiSt4lessIiESaIiEED2Ev,"axG",@progbits,_ZNSt3setIiSt4lessIiESaIiEED5Ev,comdat
	.align 2
	.weak	_ZNSt3setIiSt4lessIiESaIiEED2Ev
	.type	_ZNSt3setIiSt4lessIiESaIiEED2Ev, @function
_ZNSt3setIiSt4lessIiESaIiEED2Ev:
.LFB1591:
	.cfi_startproc
	pushq	%rbp
	.cfi_def_cfa_offset 16
	.cfi_offset 6, -16
	movq	%rsp, %rbp
	.cfi_def_cfa_register 6
	subq	$16, %rsp
	movq	%rdi, -8(%rbp)
	movq	-8(%rbp), %rax
	movq	%rax, %rdi
	call	_ZNSt8_Rb_treeIiiSt9_IdentityIiESt4lessIiESaIiEED1Ev
	nop
	leave
	.cfi_def_cfa 7, 8
	ret
	.cfi_endproc
.LFE1591:
	.size	_ZNSt3setIiSt4lessIiESaIiEED2Ev, .-_ZNSt3setIiSt4lessIiESaIiEED2Ev
	.weak	_ZNSt3setIiSt4lessIiESaIiEED1Ev
	.set	_ZNSt3setIiSt4lessIiESaIiEED1Ev,_ZNSt3setIiSt4lessIiESaIiEED2Ev
	.text
	.type	_Z41__static_initialization_and_destruction_0ii, @function
_Z41__static_initialization_and_destruction_0ii:
.LFB1589:
	.cfi_startproc
	pushq	%rbp
	.cfi_def_cfa_offset 16
	.cfi_offset 6, -16
	movq	%rsp, %rbp
	.cfi_def_cfa_register 6
	subq	$16, %rsp
	movl	%edi, -4(%rbp)
	movl	%esi, -8(%rbp)
	cmpl	$1, -4(%rbp)
	jne	.L342
	cmpl	$65535, -8(%rbp)
	jne	.L342
	movl	$_ZStL8__ioinit, %edi
	call	_ZNSt8ios_base4InitC1Ev
	movl	$__dso_handle, %edx
	movl	$_ZStL8__ioinit, %esi
	movl	$_ZNSt8ios_base4InitD1Ev, %edi
	call	__cxa_atexit
	movl	$visit, %edi
	call	_ZNSt3setIiSt4lessIiESaIiEEC1Ev
	movl	$__dso_handle, %edx
	movl	$visit, %esi
	movl	$_ZNSt3setIiSt4lessIiESaIiEED1Ev, %edi
	call	__cxa_atexit
.L342:
	nop
	leave
	.cfi_def_cfa 7, 8
	ret
	.cfi_endproc
.LFE1589:
	.size	_Z41__static_initialization_and_destruction_0ii, .-_Z41__static_initialization_and_destruction_0ii
	.type	_GLOBAL__sub_I_l, @function
_GLOBAL__sub_I_l:
.LFB1593:
	.cfi_startproc
	pushq	%rbp
	.cfi_def_cfa_offset 16
	.cfi_offset 6, -16
	movq	%rsp, %rbp
	.cfi_def_cfa_register 6
	movl	$65535, %esi
	movl	$1, %edi
	call	_Z41__static_initialization_and_destruction_0ii
	popq	%rbp
	.cfi_def_cfa 7, 8
	ret
	.cfi_endproc
.LFE1593:
	.size	_GLOBAL__sub_I_l, .-_GLOBAL__sub_I_l
	.section	.init_array,"aw"
	.align 8
	.quad	_GLOBAL__sub_I_l
	.hidden	__dso_handle
	.ident	"GCC: (Ubuntu 5.4.0-6ubuntu1~16.04.4) 5.4.0 20160609"
	.section	.note.GNU-stack,"",@progbits
